((lp0
S'indeed,'
p1
aS"it's"
p2
aS'gread'
p3
aS'to'
p4
aS'finally'
p5
aS'take'
p6
aS'this'
p7
aS'class'
p8
aS'as'
p9
aS'a'
p10
aS'mooc.'
p11
aS'i'
p12
aS'watched'
p13
aS'the'
p14
aS'old'
p15
aS'lectures'
p16
aS'on'
p17
aS'see.stanford.edu'
p18
aS'multiple'
p19
aS'times.'
p20
aS'thank'
p21
aS'you'
p22
aS'for'
p23
aS'making'
p24
aS'this'
p25
aS'class.'
p26
aS':-)'
p27
aS'positive'
p28
tp29
.((lp0
S'absolutly,'
p1
aS'these'
p2
aS'courses'
p3
aS'are'
p4
aS'my'
p5
aS'bedtime'
p6
aS'tv.'
p7
aS'if'
p8
aS'i'
p9
aS'am'
p10
aS'not'
p11
aS'in'
p12
aS'bed,'
p13
aS'i'
p14
aS'am'
p15
aS'doing'
p16
aS'something'
p17
aS'else.'
p18
aS'they'
p19
aS'work'
p20
aS'better'
p21
aS'than'
p22
aS'camomile'
p23
aS'tea,'
p24
aS':)'
p25
aS'(nothing'
p26
aS'to'
p27
aS'do'
p28
aS'with'
p29
aS'lecture'
p30
aS'quality'
p31
aS'or'
p32
aS'content,'
p33
aS'much'
p34
aS'to'
p35
aS'do'
p36
aS'with'
p37
aS'cramming'
p38
aS'last'
p39
aS'little'
p40
aS'bit'
p41
aS'of'
p42
aS'productivity'
p43
aS'into'
p44
aS'a'
p45
aS'long'
p46
aS'day)'
p47
aS'positive'
p48
tp49
.((lp0
S'there'
p1
aS'is'
p2
aS'a'
p3
aS'preview'
p4
aS'on'
p5
aS'google'
p6
aS'books:'
p7
aS'http://books.google.de/books?id=1tioka9bx3sc&printsec=frontcover&dq=convex+analysis+rockafellar+pdf&hl=de&sa=x&ei=rgteuscrf5sy7aaxhyhwaw&ved=0cdmq6aewaa#v=onepage&q&f=false'
p8
aS'another'
p9
aS'preview'
p10
aS'(possibly'
p11
aS'complete?)'
p12
aS'can'
p13
aS'be'
p14
aS'found'
p15
aS'here'
p16
aS'(if'
p17
aS'illegal'
p18
aS'please'
p19
aS'delete'
p20
aS'it):'
p21
aS'http://de.scribd.com/doc/1<phoneredac>1/convex-analysis-rockafellar-pdf'
p22
aS"i'm"
p23
aS'not'
p24
aS'sure'
p25
aS'if'
p26
aS'there'
p27
aS'is'
p28
aS'any'
p29
aS'legal'
p30
aS'download'
p31
aS'available'
p32
aS'for'
p33
aS'the'
p34
aS'complete'
p35
aS'book.'
p36
aS'if'
p37
aS"you're"
p38
aS'interested'
p39
aS'in'
p40
aS'convex'
p41
aS'analysis'
p42
aS'as'
p43
aS'a'
p44
aS'supplement'
p45
aS'for'
p46
aS'this'
p47
aS'course,'
p48
aS"i'd"
p49
aS'suggest:'
p50
aS'http://www2.isye.gatech.edu/~nemirovs/optiii_lecturenotes.pdf'
p51
aS'the'
p52
aS'first'
p53
aS'part'
p54
aS'of'
p55
aS'these'
p56
aS'lecture'
p57
aS'notes'
p58
aS'covers'
p59
aS'convex'
p60
aS'analysis'
p61
aS'and'
p62
aS'it'
p63
aS'is'
p64
aS'much'
p65
aS'closer'
p66
aS'to'
p67
aS"what's"
p68
aS'actually'
p69
aS'needed'
p70
aS'for'
p71
aS'this'
p72
aS'course.'
p73
aS'if'
p74
aS"you've"
p75
aS'already'
p76
aS'learned'
p77
aS'about'
p78
aS'convex'
p79
aS'analysis'
p80
aS'and'
p81
aS'need'
p82
aS'a'
p83
aS'refresher:'
p84
aS'http://butler.cc.tut.fi/~bossavit/backupicm/ca.pdf'
p85
aS'positive'
p86
tp87
.((lp0
S'i'
p1
aS'am'
p2
aS'really'
p3
aS'new'
p4
aS'into'
p5
aS'this'
p6
aS'field'
p7
aS'..'
p8
aS':)'
p9
aS'and'
p10
aS'was'
p11
aS'wondering'
p12
aS'why'
p13
aS'**cant**'
p14
aS'convex'
p15
aS'optimization'
p16
aS'give'
p17
aS'us'
p18
aS'a'
p19
aS'**unique'
p20
aS'solution**'
p21
aS'if'
p22
aS'we'
p23
aS'are'
p24
aS'able'
p25
aS'to'
p26
aS'transform'
p27
aS'the'
p28
aS'problem'
p29
aS'into'
p30
aS'a'
p31
aS'convex'
p32
aS'one'
p33
aS'?'
p34
aS'thanks'
p35
aS'!'
p36
aS'positive'
p37
tp38
.((lp0
S'thanks'
p1
aS'a'
p2
aS'lot:)'
p3
aS'positive'
p4
tp5
.((lp0
S'arthur,'
p1
aS'good'
p2
aS'to'
p3
aS'see'
p4
aS'you!'
p5
aS':-)'
p6
aS'i'
p7
aS'assume'
p8
aS"you're"
p9
aS'the'
p10
aS'same'
p11
aS'arthur'
p12
aS'that'
p13
aS'took'
p14
aS'complex'
p15
aS'analysis'
p16
aS'on'
p17
aS'coursera?'
p18
aS'positive'
p19
tp20
.((lp0
S'thanks'
p1
aS'=)'
p2
aS'the'
p3
aS'thing'
p4
aS'i'
p5
aS'missed'
p6
aS'was'
p7
aS'that'
p8
aS'the'
p9
aS'cone'
p10
aS'given'
p11
aS'in'
p12
aS'the'
p13
aS'quiz'
p14
aS'is'
p15
aS'not'
p16
aS'$$r^2_+$$'
p17
aS'positive'
p18
tp19
.((lp0
S'thanks'
p1
aS'demue,'
p2
aS'it'
p3
aS'was'
p4
aS'nice'
p5
aS':)'
p6
aS'positive'
p7
tp8
.((lp0
S'i'
p1
aS'would'
p2
aS'find'
p3
aS'it'
p4
aS'more'
p5
aS'intuitive'
p6
aS'if'
p7
aS'clicking'
p8
aS'the'
p9
aS'reset'
p10
aS'would'
p11
aS'not'
p12
aS'clear'
p13
aS'all'
p14
aS'the'
p15
aS'inputs.'
p16
aS'i'
p17
aS'even'
p18
aS'fell'
p19
aS'for'
p20
aS'it'
p21
aS'twice'
p22
aS'-'
p23
aS'a'
p24
aS'quick'
p25
aS'check'
p26
aS'if'
p27
aS'one'
p28
aS'submitted'
p29
aS'a'
p30
aS'blank'
p31
aS'form'
p32
aS'would'
p33
aS'be'
p34
aS'nice.'
p35
aS'anyway,'
p36
aS'i'
p37
aS'guess'
p38
aS'i'
p39
aS'will'
p40
aS'get'
p41
aS'used'
p42
aS'to'
p43
aS'it'
p44
aS'(hopefully'
p45
aS':))'
p46
aS'positive'
p47
tp48
.((lp0
S'video'
p1
aS'downloads'
p2
aS'link'
p3
aS'has'
p4
aS'been'
p5
aS'created'
p6
aS'up'
p7
aS'top'
p8
aS'right.'
p9
aS':)'
p10
aS'the'
p11
aS'linked'
p12
aS'mp4'
p13
aS'videos'
p14
aS'are'
p15
aS'about'
p16
aS'400mb-700mb'
p17
aS'in'
p18
aS'size'
p19
aS'(my'
p20
aS'net'
p21
aS'speed'
p22
aS'is'
p23
aS'256'
p24
aS'kbps!).'
p25
aS'i'
p26
aS'am'
p27
aS'definitely'
p28
aS'going'
p29
aS'for'
p30
aS'youtube'
p31
aS'flv'
p32
aS'(much'
p33
aS'smaller).'
p34
aS'thanks'
p35
aS'@cbilson.'
p36
aS'positive'
p37
tp38
.((lp0
S'same'
p1
aS'here!'
p2
aS':-)'
p3
aS'positive'
p4
tp5
.((lp0
S'good'
p1
aS'lord,'
p2
aS'i'
p3
aS'am'
p4
aS'an'
p5
aS'absolute'
p6
aS'idiot.'
p7
aS'i'
p8
aS'did'
p9
aS'not'
p10
aS'consider'
p11
aS'$'
p12
aS'x_1,'
p13
aS'x_2'
p14
aS'ge'
p15
aS'0$.'
p16
aS'so,'
p17
aS'i'
p18
aS'got'
p19
aS'a'
p20
aS'a'
p21
aS'plane'
p22
aS'to'
p23
aS'the'
p24
aS'left'
p25
aS'of'
p26
aS'$x_1'
p27
aS'='
p28
aS'x_2$'
p29
aS'including'
p30
aS'the'
p31
aS'negative'
p32
aS'quadrants.'
p33
aS'so,'
p34
aS'i'
p35
aS'had'
p36
aS'a'
p37
aS'$180^o'
p38
aS'$'
p39
aS'cone,'
p40
aS'whose'
p41
aS'dual'
p42
aS'was'
p43
aS'the'
p44
aS'ray.'
p45
aS'funny,'
p46
aS'that'
p47
aS'i'
p48
aS'got'
p49
aS'lucky'
p50
aS'and'
p51
aS'got'
p52
aS'the'
p53
aS'first'
p54
aS'option'
p55
aS'right.'
p56
aS'thanks'
p57
aS'for'
p58
aS'taking'
p59
aS'the'
p60
aS'time'
p61
aS'to'
p62
aS'write'
p63
aS'it'
p64
aS'in'
p65
aS'so'
p66
aS'much'
p67
aS'detail'
p68
aS':)'
p69
aS'positive'
p70
tp71
.((lp0
S"i'd"
p1
aS'say'
p2
aS'remember'
p3
aS'that'
p4
aS'an'
p5
aS'affine'
p6
aS'set'
p7
aS'contains'
p8
aS'the'
p9
aS'"line"'
p10
aS'passing'
p11
aS'through'
p12
aS'any'
p13
aS'two'
p14
aS'points'
p15
aS'while'
p16
aS'convex'
p17
aS'set'
p18
aS'contains'
p19
aS'the'
p20
aS'"line'
p21
aS'segment"'
p22
aS'between'
p23
aS'any'
p24
aS'two'
p25
aS'points.'
p26
aS'if'
p27
aS'you'
p28
aS'can'
p29
aS'differentiate'
p30
aS'between'
p31
aS'a'
p32
aS'line'
p33
aS'segment'
p34
aS'and'
p35
aS'a'
p36
aS'line,'
p37
aS'this'
p38
aS'helps'
p39
aS'you'
p40
aS'both'
p41
aS'in'
p42
aS'geometric'
p43
aS'sense'
p44
aS'and'
p45
aS'analytic'
p46
aS'sense.'
p47
aS':)'
p48
aS'as'
p49
aS'to'
p50
aS'why'
p51
aS'should'
p52
aS'we'
p53
aS'start'
p54
aS'the'
p55
aS'course'
p56
aS'with'
p57
aS'these'
p58
aS'definitions,'
p59
aS"i'd"
p60
aS'say'
p61
aS'probably'
p62
aS'these'
p63
aS'definitions'
p64
aS'help'
p65
aS'with'
p66
aS'formulating'
p67
aS'and'
p68
aS'solving'
p69
aS'the'
p70
aS'problems'
p71
aS'we'
p72
aS'encounter.'
p73
aS'i'
p74
aS'think'
p75
aS'we'
p76
aS'had'
p77
aS'a'
p78
aS'couple'
p79
aS'good'
p80
aS'quiz'
p81
aS'questions'
p82
aS'on'
p83
aS'these.'
p84
aS'so'
p85
aS'hopefully'
p86
aS'they'
p87
aS'give'
p88
aS'a'
p89
aS'chance'
p90
aS'to'
p91
aS'apply'
p92
aS'these.'
p93
aS'positive'
p94
tp95
.((lp0
S'open'
p1
aS'balls'
p2
aS'in'
p3
aS'$mathbb'
p4
aS'r^n$'
p5
aS'for'
p6
aS'$ngeq'
p7
aS'2$'
p8
aS'are'
p9
aS'not'
p10
aS'open'
p11
aS'intervals.'
p12
aS'take'
p13
aS'a'
p14
aS'look'
p15
aS'at'
p16
aS'$mathbb'
p17
aS'r^2$'
p18
aS'and'
p19
aS'the'
p20
aS'euclidean'
p21
aS'norm.'
p22
aS'an'
p23
aS'open'
p24
aS'ball'
p25
aS'of'
p26
aS'radius'
p27
aS'$epsilon$'
p28
aS'around'
p29
aS'the'
p30
aS'point'
p31
aS'$x_0$'
p32
aS'will'
p33
aS'be'
p34
aS'of'
p35
aS'the'
p36
aS'form:'
p37
aS'$b_epsilon(x_0)'
p38
aS'='
p39
aS'{x'
p40
aS','
p41
aS'|'
p42
aS','
p43
aS'|'
p44
aS'x'
p45
aS'-'
p46
aS'x_0'
p47
aS'|_2'
p48
aS'<'
p49
aS'epsilon'
p50
aS'}$'
p51
aS'where'
p52
aS'$|x|_2'
p53
aS'='
p54
aS'sqrt{sum_{i=1}^n'
p55
aS'x_i^2}$.'
p56
aS'![enter'
p57
aS'image'
p58
aS'description'
p59
aS'here][1]'
p60
aS'[1]:'
p61
aS'http://4.bp.blogspot.com/-ytupwaazfk0/t9wwhfivoei/aaaaaaaaaek/sripsjcmll0/s1600/openball.tiff'
p62
aS'i.e.'
p63
aS'for'
p64
aS'$mathbb'
p65
aS'r^2$,'
p66
aS'we'
p67
aS'have'
p68
aS'$|x|_2'
p69
aS'='
p70
aS'sqrt{x_1^2+x_2^2}$'
p71
aS'the'
p72
aS'problem'
p73
aS'is,'
p74
aS"you'll"
p75
aS'never'
p76
aS'fit'
p77
aS'such'
p78
aS'a'
p79
aS'ball'
p80
aS'into'
p81
aS'an'
p82
aS'open'
p83
aS'interval'
p84
aS'$]a,'
p85
aS'b[$.'
p86
aS'being'
p87
aS'an'
p88
aS'open'
p89
aS'set'
p90
aS'means'
p91
aS'that'
p92
aS'for'
p93
aS'every'
p94
aS'point'
p95
aS'in'
p96
aS'the'
p97
aS'set'
p98
aS'you'
p99
aS'can'
p100
aS'find'
p101
aS'an'
p102
aS'open'
p103
aS'ball'
p104
aS'with'
p105
aS'small'
p106
aS'enough'
p107
aS'radius'
p108
aS'that'
p109
aS'is'
p110
aS'fully'
p111
aS'contained'
p112
aS'in'
p113
aS'the'
p114
aS'set.'
p115
aS'but'
p116
aS'open'
p117
aS'balls'
p118
aS'look'
p119
aS'different'
p120
aS'depending'
p121
aS'on'
p122
aS'what'
p123
aS'space'
p124
aS"you're"
p125
aS'in.'
p126
aS'an'
p127
aS'open'
p128
aS'ball'
p129
aS'in'
p130
aS'$mathbb'
p131
aS'r^2$'
p132
aS'is'
p133
aS'different'
p134
aS'from'
p135
aS'an'
p136
aS'open'
p137
aS'ball'
p138
aS'in'
p139
aS'$mathbb'
p140
aS'r$.'
p141
aS'so'
p142
aS'if'
p143
aS'a'
p144
aS'cone'
p145
aS'is'
p146
aS'solid,'
p147
aS"it's"
p148
aS'a'
p149
aS'relative'
p150
aS'idea.'
p151
aS'$k'
p152
aS'='
p153
aS'mathbb'
p154
aS'r_+$'
p155
aS'is'
p156
aS'solid'
p157
aS'in'
p158
aS'$mathbb'
p159
aS'r$'
p160
aS'because'
p161
aS'it'
p162
aS'has'
p163
aS'non-empty'
p164
aS'interior'
p165
aS'in'
p166
aS'$mathbb'
p167
aS'r$,'
p168
aS'its'
p169
aS'interior'
p170
aS'is'
p171
aS'$mathbb'
p172
aS'r_{++}$'
p173
aS'and'
p174
aS'open'
p175
aS'balls'
p176
aS'in'
p177
aS'$mathbb'
p178
aS'r$'
p179
aS'are'
p180
aS'open'
p181
aS'intervals.'
p182
aS'but'
p183
aS"it's"
p184
aS'not'
p185
aS'solid'
p186
aS'in'
p187
aS'$mathbb'
p188
aS'r^2$'
p189
aS'anymore.'
p190
aS'you'
p191
aS'might'
p192
aS'want'
p193
aS'to'
p194
aS'take'
p195
aS'a'
p196
aS'look'
p197
aS'at'
p198
aS'metric'
p199
aS'spaces'
p200
aS'if'
p201
aS'you'
p202
aS"haven't"
p203
aS'seen'
p204
aS'it.'
p205
aS'there'
p206
aS'is'
p207
aS'a'
p208
aS'beautiful'
p209
aS'lecture'
p210
aS'series'
p211
aS'on'
p212
aS'real'
p213
aS'analysis'
p214
aS'on'
p215
aS'youtube'
p216
aS'that'
p217
aS'covers'
p218
aS'these'
p219
aS'topics'
p220
aS'http://www.youtube.com/watch?v=ebnoxgp8mlm&list=pl0e<zipredac>54696f<zipredac>213<zipredac>ec'
p221
aS'positive'
p222
tp223
.((lp0
S'symbols'
p1
aS'used'
p2
aS'in'
p3
aS'"some'
p4
aS'sets'
p5
aS'of'
p6
aS'probability'
p7
aS'distributions"'
p8
aS'were'
p9
aS'not'
p10
aS'covered'
p11
aS'in'
p12
aS'the'
p13
aS'course'
p14
aS'(unless'
p15
aS'i'
p16
aS'overlooked'
p17
aS'something).'
p18
aS'could'
p19
aS'anyone'
p20
aS'point'
p21
aS'me'
p22
aS'to'
p23
aS'definitions'
p24
aS'of:'
p25
aS'1.'
p26
aS'$mathbf{prob}(x=a_i)=p_i$'
p27
aS'2.'
p28
aS'standard'
p29
aS'probability'
p30
aS'simplecx'
p31
aS'3.'
p32
aS'$mathbf{e}$'
p33
aS'---'
p34
aS'unless'
p35
aS'it'
p36
aS'is'
p37
aS'expected'
p38
aS'value'
p39
aS'positive'
p40
tp41
.((lp0
S'not'
p1
aS'all'
p2
aS'convex'
p3
aS'functions'
p4
aS'have'
p5
aS'a'
p6
aS'unique'
p7
aS'global'
p8
aS'minimum,'
p9
aS'but'
p10
aS'the'
p11
aS'set'
p12
aS'of'
p13
aS'optimal'
p14
aS'points'
p15
aS'is'
p16
aS'always'
p17
aS'convex.'
p18
aS'take'
p19
aS'a'
p20
aS'look'
p21
aS'at'
p22
aS'the'
p23
aS'function'
p24
aS'$f(x)'
p25
aS'='
p26
aS'|x|$'
p27
aS'for'
p28
aS'$|x|'
p29
aS'geq'
p30
aS'1$'
p31
aS'and'
p32
aS'$f(x)'
p33
aS'='
p34
aS'1$'
p35
aS'for'
p36
aS'$|x|'
p37
aS'<'
p38
aS'1$.'
p39
aS'it'
p40
aS'has'
p41
aS'multiple'
p42
aS'optimal'
p43
aS'points,'
p44
aS'but'
p45
aS'the'
p46
aS'function'
p47
aS'value'
p48
aS'for'
p49
aS'each'
p50
aS'of'
p51
aS'the'
p52
aS'optimal'
p53
aS'points'
p54
aS'is'
p55
aS'unique.'
p56
aS'in'
p57
aS'general'
p58
aS'you'
p59
aS'cannot'
p60
aS'simply'
p61
aS'take'
p62
aS'derivatives'
p63
aS'and'
p64
aS'set'
p65
aS'it'
p66
aS'equal'
p67
aS'to'
p68
aS'zero,'
p69
aS'because'
p70
aS'the'
p71
aS'amount'
p72
aS'of'
p73
aS'work'
p74
aS'is'
p75
aS'either'
p76
aS'too'
p77
aS'much'
p78
aS'(e.g.'
p79
aS'too'
p80
aS'many'
p81
aS'variables)'
p82
aS'or'
p83
aS'the'
p84
aS'functions'
p85
aS'are'
p86
aS'not'
p87
aS'differentiable'
p88
aS'(e.g.'
p89
aS'pointwise'
p90
aS'max'
p91
aS'of'
p92
aS'affine'
p93
aS'functions,'
p94
aS'etc).'
p95
aS'remember'
p96
aS'also'
p97
aS'that'
p98
aS'not'
p99
aS'everything'
p100
aS'must'
p101
aS'have'
p102
aS'a'
p103
aS'closed'
p104
aS'form'
p105
aS'solution,'
p106
aS'e.g.'
p107
aS'there'
p108
aS'is'
p109
aS'no'
p110
aS'closed'
p111
aS'form'
p112
aS'solutions'
p113
aS'for'
p114
aS'the'
p115
aS'zeroes'
p116
aS'of'
p117
aS'polynomials'
p118
aS'of'
p119
aS'degree'
p120
aS'(after'
p121
aS'a'
p122
aS'certain'
p123
aS'degree,'
p124
aS'which'
p125
aS'i'
p126
aS'always'
p127
aS'forget,'
p128
aS'there'
p129
aS'is'
p130
aS'no'
p131
aS'closed'
p132
aS'form'
p133
aS'solution'
p134
aS'for'
p135
aS'$p(x)'
p136
aS'='
p137
aS'0$'
p138
aS':-)).'
p139
aS'so'
p140
aS'sometimes'
p141
aS'there'
p142
aS'is'
p143
aS'just'
p144
aS'no'
p145
aS'way'
p146
aS'around'
p147
aS'than'
p148
aS'numerical'
p149
aS'approximation'
p150
aS'by'
p151
aS'some'
p152
aS'algorithm'
p153
aS'(e.g.'
p154
aS'newton,'
p155
aS'gradient'
p156
aS'descent,'
p157
aS'etc).'
p158
aS'quite'
p159
aS'often'
p160
aS"you're"
p161
aS'interested'
p162
aS'in'
p163
aS'$epsilon$-optimal'
p164
aS'solutions,'
p165
aS'i.e.'
p166
aS'you'
p167
aS'want'
p168
aS'a'
p169
aS'solution'
p170
aS'that'
p171
aS'is'
p172
aS'optimal'
p173
aS'up'
p174
aS'to'
p175
aS'a'
p176
aS'certain'
p177
aS'error'
p178
aS'because'
p179
aS'the'
p180
aS'error'
p181
aS'in'
p182
aS'estimating'
p183
aS'the'
p184
aS'variables'
p185
aS'is'
p186
aS'already'
p187
aS'so'
p188
aS'large,'
p189
aS'that'
p190
aS'a'
p191
aS'true'
p192
aS'optimal'
p193
aS'solution'
p194
aS'would'
p195
aS'not'
p196
aS'improve'
p197
aS'things'
p198
aS'(e.g.'
p199
aS'imagine'
p200
aS'you'
p201
aS'work'
p202
aS'in'
p203
aS'data'
p204
aS'analysis'
p205
aS'and'
p206
aS'you'
p207
aS'only'
p208
aS'know'
p209
aS'certain'
p210
aS'parameters'
p211
aS'up'
p212
aS'to'
p213
aS'+-5%)'
p214
aS'there'
p215
aS'are'
p216
aS'generalizations'
p217
aS'to'
p218
aS'this'
p219
aS'in'
p220
aS'the'
p221
aS'case'
p222
aS'of'
p223
aS'non-differentiability'
p224
aS'called'
p225
aS'"subgradients"'
p226
aS'and'
p227
aS'"subdifferentials"'
p228
aS'(covered'
p229
aS'in'
p230
aS'part'
p231
aS'ii'
p232
aS'of'
p233
aS'this'
p234
aS'course)'
p235
aS'positive'
p236
tp237
.((lp0
S"i've"
p1
aS'noticed'
p2
aS'that'
p3
aS'convex'
p4
aS'and'
p5
aS'functional'
p6
aS'analysis'
p7
aS'seem'
p8
aS'to'
p9
aS'be'
p10
aS'closely'
p11
aS'related.'
p12
aS"i'm"
p13
aS'reading'
p14
aS"nemirovski's"
p15
aS'lecture'
p16
aS'notes'
p17
aS'on'
p18
aS'convex'
p19
aS'optimization'
p20
aS'as'
p21
aS'supplementary'
p22
aS'material'
p23
aS'and'
p24
aS'the'
p25
aS'first'
p26
aS'100'
p27
aS'pages'
p28
aS'are'
p29
aS'a'
p30
aS'mixture'
p31
aS'of'
p32
aS'convex'
p33
aS'and'
p34
aS'functional'
p35
aS'analysis'
p36
aS'(hyperplane'
p37
aS'separation'
p38
aS'theorem'
p39
aS'as'
p40
aS'a'
p41
aS'consequence'
p42
aS'of'
p43
aS'hahn-banach,'
p44
aS'etc).'
p45
aS'i'
p46
aS'also'
p47
aS'take'
p48
aS'a'
p49
aS'course'
p50
aS'on'
p51
aS'functional'
p52
aS'analysis'
p53
aS'parallel'
p54
aS'to'
p55
aS'this'
p56
aS'one,'
p57
aS'and'
p58
aS'every'
p59
aS'second'
p60
aS'question'
p61
aS'looks'
p62
aS'as'
p63
aS'if'
p64
aS'it'
p65
aS'could'
p66
aS'have'
p67
aS'been'
p68
aS'asked'
p69
aS'in'
p70
aS'either'
p71
aS'one'
p72
aS'of'
p73
aS'the'
p74
aS'courses.'
p75
aS'e.g.'
p76
aS'one'
p77
aS'of'
p78
aS'the'
p79
aS'first'
p80
aS'questions'
p81
aS'asked'
p82
aS'in'
p83
aS'the'
p84
aS'functional'
p85
aS'analysis'
p86
aS'course'
p87
aS'was'
p88
aS'to'
p89
aS'prove'
p90
aS'that'
p91
aS'if'
p92
aS'a'
p93
aS'function'
p94
aS'is'
p95
aS'subadditive'
p96
aS'$$f(x+y)'
p97
aS'leq'
p98
aS'f(x)'
p99
aS'+'
p100
aS'f(y)$$'
p101
aS'and'
p102
aS'positively'
p103
aS'homogeneous'
p104
aS'of'
p105
aS'degree'
p106
aS'1'
p107
aS'$$f(tx)'
p108
aS'='
p109
aS'tf(x)'
p110
aS'ext{'
p111
aS'for'
p112
aS'}'
p113
aS't'
p114
aS'in'
p115
aS'mathbb'
p116
aS'r_+$$'
p117
aS'then'
p118
aS'the'
p119
aS'function'
p120
aS'is'
p121
aS'also'
p122
aS'convex.'
p123
aS"i'm"
p124
aS'wondering'
p125
aS'how'
p126
aS'deep'
p127
aS'the'
p128
aS'connection'
p129
aS'really'
p130
aS'is...'
p131
aS"i've"
p132
aS'also'
p133
aS'read'
p134
aS'that'
p135
aS'nemirovski'
p136
aS'was'
p137
aS'originally'
p138
aS'trained'
p139
aS'in'
p140
aS'functional'
p141
aS'analysis.'
p142
aS'(i'
p143
aS'like'
p144
aS'it...'
p145
aS'i'
p146
aS'see'
p147
aS'the'
p148
aS'proofs'
p149
aS'in'
p150
aS'one'
p151
aS'course'
p152
aS'and'
p153
aS'the'
p154
aS'applications'
p155
aS'here.'
p156
aS':-))'
p157
aS'positive'
p158
tp159
.((lp0
S'yes,'
p1
aS'it'
p2
aS'should'
p3
aS'work'
p4
aS"(don't"
p5
aS'have'
p6
aS'the'
p7
aS'time'
p8
aS'to'
p9
aS'look'
p10
aS'at'
p11
aS'all'
p12
aS'the'
p13
aS'details,'
p14
aS'but'
p15
aS'it'
p16
aS'looks'
p17
aS'good'
p18
aS';)).'
p19
aS'when'
p20
aS'i'
p21
aS'learned'
p22
aS'about'
p23
aS'operator'
p24
aS'norms,'
p25
aS"i've"
p26
aS'noticed'
p27
aS'a'
p28
aS'common'
p29
aS'pattern'
p30
aS'in'
p31
aS'most'
p32
aS'of'
p33
aS'the'
p34
aS'proofs.'
p35
aS'to'
p36
aS'establish'
p37
aS'the'
p38
aS'lower'
p39
aS'bound'
p40
aS'one'
p41
aS'usually'
p42
aS'uses'
p43
aS'a'
p44
aS'specific'
p45
aS'vector,'
p46
aS'while'
p47
aS'for'
p48
aS'the'
p49
aS'upper'
p50
aS'bound'
p51
aS"it's"
p52
aS'more'
p53
aS'of'
p54
aS'a'
p55
aS'"reformulation"'
p56
aS'of'
p57
aS'the'
p58
aS'operator'
p59
aS'norm'
p60
aS'definition.'
p61
aS'the'
p62
aS'lower'
p63
aS'bound'
p64
aS'comes'
p65
aS'rather'
p66
aS'naturally'
p67
aS'because'
p68
aS'the'
p69
aS'operator'
p70
aS'norm'
p71
aS'itself'
p72
aS'uses'
p73
aS'a'
p74
aS'$sup$.'
p75
aS'the'
p76
aS'upperbound'
p77
aS'is'
p78
aS'usually'
p79
aS'more'
p80
aS'difficult'
p81
aS'to'
p82
aS'derive.'
p83
aS'positive'
p84
tp85
.((lp0
S'![sorry'
p1
aS';)][1]'
p2
aS'[1]:'
p3
aS'https://edx-west-uploads.s3.amazonaws.com/1<phoneredac>0<phoneredac>3.jpg'
p4
aS'positive'
p5
tp6
.((lp0
S'try'
p1
aS'attempting'
p2
aS'to'
p3
aS'solve'
p4
aS'part'
p5
aS'5'
p6
aS'with'
p7
aS'your'
p8
aS'kidney'
p9
aS'sets.'
p10
aS'one'
p11
aS'kidney,'
p12
aS'and'
p13
aS'the'
p14
aS'other'
p15
aS'shape'
p16
aS'a'
p17
aS'convex'
p18
aS'shape'
p19
aS'that'
p20
aS'directly'
p21
aS'fits'
p22
aS'into'
p23
aS'the'
p24
aS'kidney.'
p25
aS'i'
p26
aS'did'
p27
aS'not'
p28
aS'solve'
p29
aS'this'
p30
aS'one'
p31
aS'analytically,'
p32
aS'i'
p33
aS'am'
p34
aS'not'
p35
aS'sure'
p36
aS'i'
p37
aS'can'
p38
aS':p'
p39
aS'positive'
p40
tp41
.((lp0
S'yes,'
p1
aS"you're"
p2
aS'right.'
p3
aS"sylvester's"
p4
aS'criterion'
p5
aS'is'
p6
aS'both'
p7
aS'sufficient'
p8
aS'and'
p9
aS'necessary.'
p10
aS"that's"
p11
aS'why'
p12
aS'i'
p13
aS'said'
p14
aS'the'
p15
aS'question'
p16
aS'is'
p17
aS'rather'
p18
aS'weird'
p19
aS'since'
p20
aS'it'
p21
aS"doesn't"
p22
aS'want'
p23
aS'to'
p24
aS'have'
p25
aS'the'
p26
aS'minimum'
p27
aS'criterion'
p28
aS'(all'
p29
aS'leading'
p30
aS'principle'
p31
aS'minors)'
p32
aS'as'
p33
aS'an'
p34
aS'answer.'
p35
aS'most'
p36
aS'of'
p37
aS'us'
p38
aS'are'
p39
aS'used'
p40
aS'to'
p41
aS'interpret'
p42
aS'question'
p43
aS'that'
p44
aS'way.'
p45
aS'i'
p46
aS'tried'
p47
aS'to'
p48
aS'formulate'
p49
aS'it'
p50
aS'in'
p51
aS'a'
p52
aS'way'
p53
aS'that'
p54
aS'does'
p55
aS'not'
p56
aS'spoil'
p57
aS'the'
p58
aS'solution'
p59
aS'(immediately).'
p60
aS"that's"
p61
aS'why'
p62
aS'i'
p63
aS'said'
p64
aS'"what'
p65
aS'does'
p66
aS'sylvester'
p67
aS'tell'
p68
aS'you'
p69
aS'if'
p70
aS'you'
p71
aS'apply'
p72
aS'it'
p73
aS'to'
p74
aS'a'
p75
aS'diagonal'
p76
aS'matrix",'
p77
aS'etc.'
p78
aS'because'
p79
aS'after'
p80
aS'all'
p81
aS"it's"
p82
aS'our'
p83
aS'homework.'
p84
aS';)'
p85
aS'positive'
p86
tp87
.((lp0
S'dear'
p1
aS'all,'
p2
aS'if'
p3
aS'you'
p4
aS'have'
p5
aS'read'
p6
aS'the'
p7
aS'page'
p8
aS'22'
p9
aS'of'
p10
aS'textbook,'
p11
aS'it'
p12
aS'says'
p13
aS'an'
p14
aS'affine'
p15
aS'set'
p16
aS'c'
p17
aS'can'
p18
aS'be'
p19
aS'expressed'
p20
aS'as'
p21
aS'the'
p22
aS'summation'
p23
aS'of'
p24
aS'a'
p25
aS'subspace'
p26
aS'and'
p27
aS'a'
p28
aS'point'
p29
aS'x0'
p30
aS'in'
p31
aS'c'
p32
aS'c'
p33
aS'='
p34
aS'v'
p35
aS'+'
p36
aS'x0'
p37
aS'here'
p38
aS'it'
p39
aS'requires'
p40
aS'that'
p41
aS'x0'
p42
aS'has'
p43
aS'to'
p44
aS'be'
p45
aS'in'
p46
aS'c'
p47
aS'but'
p48
aS'later'
p49
aS'the'
p50
aS'book'
p51
aS'gives'
p52
aS'an'
p53
aS'example'
p54
aS'c={x|ax=b}'
p55
aS'and'
p56
aS'states'
p57
aS'that'
p58
aS'subspace'
p59
aS'for'
p60
aS'this'
p61
aS'c'
p62
aS'is'
p63
aS'null'
p64
aS'space'
p65
aS'{x|ax=0}'
p66
aS'does'
p67
aS'that'
p68
aS'mean'
p69
aS'c'
p70
aS'='
p71
aS'v'
p72
aS'+'
p73
aS'b?'
p74
aS'but'
p75
aS'b'
p76
aS'is'
p77
aS'definitely'
p78
aS'not'
p79
aS'always'
p80
aS'in'
p81
aS'c!'
p82
aS'ab'
p83
aS'='
p84
aS'b'
p85
aS'?!'
p86
aS'could'
p87
aS'anybody'
p88
aS'explain'
p89
aS'this?'
p90
aS'thank'
p91
aS'you'
p92
aS'so'
p93
aS'much'
p94
aS'in'
p95
aS'advance.'
p96
aS':)'
p97
aS'positive'
p98
tp99
.((lp0
S'i'
p1
aS'think'
p2
aS'it'
p3
aS'should'
p4
aS'work.'
p5
aS'$tr(a^tx)$'
p6
aS'corresponds'
p7
aS'to'
p8
aS'taking'
p9
aS'the'
p10
aS'sum'
p11
aS'over'
p12
aS'the'
p13
aS'diagonal'
p14
aS'elements'
p15
aS'of'
p16
aS'$a^tx$,'
p17
aS'but'
p18
aS'the'
p19
aS'diagonal'
p20
aS'elements'
p21
aS'are'
p22
aS'given'
p23
aS'by'
p24
aS'the'
p25
aS'inner'
p26
aS'product'
p27
aS'between'
p28
aS'the'
p29
aS'$i_{th}$'
p30
aS'column'
p31
aS'of'
p32
aS'a'
p33
aS'(='
p34
aS'$i_{th}$'
p35
aS'row'
p36
aS'of'
p37
aS'$a^t$)'
p38
aS'and'
p39
aS'the'
p40
aS'$i_{th}$'
p41
aS'column'
p42
aS'of'
p43
aS'$x$.'
p44
aS'the'
p45
aS'function'
p46
aS'$vec$'
p47
aS'(if'
p48
aS'defined'
p49
aS'as'
p50
aS'$a(:)$'
p51
aS'in'
p52
aS'matlab)'
p53
aS'takes'
p54
aS'the'
p55
aS'columns'
p56
aS'of'
p57
aS'a'
p58
aS'matrix'
p59
aS'and'
p60
aS'creates'
p61
aS'a'
p62
aS'long'
p63
aS'vector'
p64
aS'out'
p65
aS'of'
p66
aS'them.'
p67
aS'if'
p68
aS'you'
p69
aS'then'
p70
aS'take'
p71
aS'the'
p72
aS'inner'
p73
aS'product'
p74
aS'between'
p75
aS'both,'
p76
aS"it'll"
p77
aS'be'
p78
aS'the'
p79
aS'same'
p80
aS'as'
p81
aS'$tr(a^tx)$.'
p82
aS'[i'
p83
aS'just'
p84
aS'randomly'
p85
aS'checked'
p86
aS'it'
p87
aS'with'
p88
aS'a'
p89
aS'couple'
p90
aS'matrices'
p91
aS'in'
p92
aS'matlab,'
p93
aS'it'
p94
aS'works.]'
p95
aS'positive'
p96
tp97
.((lp0
S'thanks'
p1
aS'a'
p2
aS'million!'
p3
aS':)'
p4
aS'positive'
p5
tp6
.((lp0
S'well,'
p1
aS'maybe'
p2
aS'we'
p3
aS'can'
p4
aS'forget'
p5
aS'the'
p6
aS'last'
p7
aS'remark.'
p8
aS"i'm"
p9
aS'not'
p10
aS'sure'
p11
aS'and'
p12
aS'way'
p13
aS'too'
p14
aS'tired.'
p15
aS'anyone'
p16
aS'care'
p17
aS'to'
p18
aS'prove'
p19
aS'it?'
p20
aS':d'
p21
aS'positive'
p22
tp23
.((lp0
S'maze4.net'
p1
aS'description'
p2
aS'makes'
p3
aS'a'
p4
aS'lot'
p5
aS'of'
p6
aS'sense.'
p7
aS'moreover,'
p8
aS'it'
p9
aS'clarifies'
p10
aS'the'
p11
aS'motivation.'
p12
aS'thanks'
p13
aS'very'
p14
aS'much'
p15
aS':).'
p16
aS'positive'
p17
tp18
.((lp0
S'i'
p1
aS"don't"
p2
aS'think'
p3
aS"it's"
p4
aS'ambiguous.'
p5
aS'from'
p6
aS'$geq$'
p7
aS'does'
p8
aS'not'
p9
aS'always'
p10
aS'follow'
p11
aS'$>$.'
p12
aS'but'
p13
aS'in'
p14
aS'my'
p15
aS'opinion'
p16
aS'it'
p17
aS'still'
p18
aS'would'
p19
aS'be'
p20
aS'better'
p21
aS'to'
p22
aS'use'
p23
aS'"necessary"'
p24
aS'and'
p25
aS'"sufficient".'
p26
aS'[but'
p27
aS'it'
p28
aS'still'
p29
aS'caught'
p30
aS'me'
p31
aS'on'
p32
aS'the'
p33
aS'first'
p34
aS'try.]'
p35
aS'edit:'
p36
aS'i'
p37
aS'had'
p38
aS'to'
p39
aS'edit'
p40
aS'my'
p41
aS'answer,'
p42
aS'was'
p43
aS'too'
p44
aS'tired'
p45
aS'when'
p46
aS'answering.'
p47
aS':-)'
p48
aS'positive'
p49
tp50
.((lp0
S'yes,'
p1
aS'it'
p2
aS'would'
p3
aS'make'
p4
aS'it'
p5
aS'positive'
p6
aS'definite.'
p7
aS'i'
p8
aS'was'
p9
aS'too'
p10
aS'tired!'
p11
aS'of'
p12
aS'course'
p13
aS'from'
p14
aS'$>$'
p15
aS'follows'
p16
aS'$geq$'
p17
aS'and'
p18
aS'not'
p19
aS'vice'
p20
aS'versa!'
p21
aS':-)'
p22
aS'positive'
p23
tp24
.((lp0
S'yes,'
p1
aS"it's"
p2
aS'technically'
p3
aS'unambiguous.'
p4
aS'$geq$'
p5
aS'does'
p6
aS'not'
p7
aS'imply'
p8
aS'$>$.'
p9
aS'i'
p10
aS'had'
p11
aS'to'
p12
aS'edit'
p13
aS'my'
p14
aS'original'
p15
aS'answer.'
p16
aS'sometimes'
p17
aS'one'
p18
aS'does'
p19
aS'silly'
p20
aS'mistakes.'
p21
aS':-)'
p22
aS'positive'
p23
tp24
.((lp0
S'i'
p1
aS'did'
p2
aS'this'
p3
aS'problem'
p4
aS'with'
p5
aS'excel'
p6
aS'solver'
p7
aS'=)'
p8
aS'the'
p9
aS'question'
p10
aS'asks'
p11
aS'for'
p12
aS'*optimal'
p13
aS'values*.'
p14
aS'so'
p15
aS'each'
p16
aS'answer'
p17
aS'should'
p18
aS'be'
p19
aS'a'
p20
aS'single'
p21
aS'real'
p22
aS'number.'
p23
aS'positive'
p24
tp25
.((lp0
S'tl;dr:'
p1
aS'+1,'
p2
aS'interpreting'
p3
aS'risk'
p4
aS'as'
p5
aS'$sqrt{x^tsigma'
p6
aS'x}$'
p7
aS'produces'
p8
aS'the'
p9
aS'correct'
p10
aS'result.'
p11
aS'non-economist'
p12
aS'ramble:'
p13
aS'in'
p14
aS'a'
p15
aS'way,'
p16
aS'it'
p17
aS'makes'
p18
aS'sense'
p19
aS'that'
p20
aS'the'
p21
aS'"risk"'
p22
aS'should'
p23
aS'be'
p24
aS'the'
p25
aS'standard'
p26
aS'deviation.'
p27
aS'it'
p28
aS'is'
p29
aS'perhaps'
p30
aS'intuitive'
p31
aS'if'
p32
aS'one'
p33
aS'considers'
p34
aS'the'
p35
aS'investment'
p36
aS'as'
p37
aS'a'
p38
aS'one-time'
p39
aS'deal.'
p40
aS'then'
p41
aS'the'
p42
aS'"risk"'
p43
aS'is'
p44
aS'the'
p45
aS'size'
p46
aS'of'
p47
aS'a'
p48
aS'likely'
p49
aS'($1sigma$~30%)'
p50
aS'fluctuation.'
p51
aS'but'
p52
aS'we'
p53
aS'should'
p54
aS'be'
p55
aS'careful'
p56
aS'and'
p57
aS'say'
p58
aS'that'
p59
aS'$\x08ar'
p60
aS'p^tx$'
p61
aS'is'
p62
aS'the'
p63
aS'average'
p64
aS'return'
p65
aS'*per'
p66
aS'deal*.'
p67
aS'similarly,'
p68
aS'the'
p69
aS'variance'
p70
aS'$x^tsigma'
p71
aS'x$'
p72
aS'is'
p73
aS'the'
p74
aS'expected'
p75
aS'square'
p76
aS'difference'
p77
aS'from'
p78
aS'$\x08ar'
p79
aS'p$'
p80
aS'*per'
p81
aS'deal*.'
p82
aS'this'
p83
aS'has'
p84
aS'consequences'
p85
aS'if'
p86
aS'we'
p87
aS'consider'
p88
aS'many'
p89
aS'successive'
p90
aS'such'
p91
aS'deals'
p92
aS'(which'
p93
aS'i'
p94
aS'guess'
p95
aS'is'
p96
aS'not'
p97
aS'too'
p98
aS'uncommon).'
p99
aS"let's"
p100
aS'call'
p101
aS'$mathcal'
p102
aS'd'
p103
aS'='
p104
aS'x^tsigma'
p105
aS'x$'
p106
aS'the'
p107
aS'"diffusion'
p108
aS'constant"'
p109
aS'(it'
p110
aS'has'
p111
aS'units'
p112
aS'$$^2$/deal).'
p113
aS'after'
p114
aS'trying'
p115
aS'the'
p116
aS'investment'
p117
aS'plan'
p118
aS'$n$'
p119
aS'times,'
p120
aS'that'
p121
aS'is'
p122
aS'making'
p123
aS'$n$'
p124
aS'such'
p125
aS'deals,'
p126
aS'the'
p127
aS'mean'
p128
aS'return'
p129
aS'is'
p130
aS'$n\x08ar'
p131
aS'p^t'
p132
aS'x$.'
p133
aS'but'
p134
aS'the'
p135
aS'expected'
p136
aS'square'
p137
aS'deviation'
p138
aS'from'
p139
aS'$n\x08ar'
p140
aS'p^t'
p141
aS'x$'
p142
aS'scales'
p143
aS'like'
p144
aS'$mathcal'
p145
aS'd'
p146
aS'n$,'
p147
aS'and'
p148
aS'not'
p149
aS'$mathcal'
p150
aS'dn^2$.'
p151
aS'one'
p152
aS'could'
p153
aS'perhaps'
p154
aS'expect'
p155
aS'that'
p156
aS'the'
p157
aS'displacement'
p158
aS'after'
p159
aS'many'
p160
aS'deals'
p161
aS'should'
p162
aS'scale'
p163
aS'as'
p164
aS'$sqrt{x^tsigma'
p165
aS'x}n=sqrt{mathcal'
p166
aS'd}n$,'
p167
aS'so'
p168
aS'that'
p169
aS'the'
p170
aS'the'
p171
aS'square'
p172
aS'displacement'
p173
aS'should'
p174
aS'scale'
p175
aS'as'
p176
aS'$mathcal'
p177
aS'd'
p178
aS'n^2$).'
p179
aS'but'
p180
aS'this'
p181
aS'is'
p182
aS'not'
p183
aS'the'
p184
aS'case,'
p185
aS'simply'
p186
aS'because'
p187
aS'sometimes'
p188
aS'you'
p189
aS'win,'
p190
aS'and'
p191
aS'sometimes'
p192
aS'you'
p193
aS'lose.'
p194
aS'with'
p195
aS'that'
p196
aS'background,'
p197
aS'$mathcal'
p198
aS'd$'
p199
aS'is'
p200
aS'the'
p201
aS'more'
p202
aS'relevant'
p203
aS'parameter.'
p204
aS'of'
p205
aS'course'
p206
aS'it'
p207
aS"doesn't"
p208
aS'matter,'
p209
aS'as'
p210
aS'long'
p211
aS'as'
p212
aS'one'
p213
aS'knows'
p214
aS'how'
p215
aS'to'
p216
aS'interpret'
p217
aS'the'
p218
aS'numbers.'
p219
aS'well,'
p220
aS'if'
p221
aS'you'
p222
aS'do'
p223
aS'vector'
p224
aS'optimization'
p225
aS'with'
p226
aS'some'
p227
aS'sneaky'
p228
aS'scalarization'
p229
aS'it'
p230
aS'will'
p231
aS'affect'
p232
aS'your'
p233
aS'result..'
p234
aS'at'
p235
aS'any'
p236
aS'rate,'
p237
aS'i'
p238
aS'am'
p239
aS'not'
p240
aS'an'
p241
aS'economist,'
p242
aS'so'
p243
aS'it'
p244
aS'would'
p245
aS'be'
p246
aS'nice'
p247
aS'if'
p248
aS'the'
p249
aS'problem'
p250
aS'formulations'
p251
aS'included'
p252
aS'explicit'
p253
aS'definitions'
p254
aS'for'
p255
aS'such'
p256
aS'specific'
p257
aS'concepts,'
p258
aS'however'
p259
aS'trivial'
p260
aS'in'
p261
aS'their'
p262
aS'respective'
p263
aS'field.'
p264
aS'positive'
p265
tp266
.((lp0
S'thanks!'
p1
aS'the'
p2
aS'assignment'
p3
aS'is'
p4
aS'not'
p5
aS'misleading'
p6
aS'--'
p7
aS'it'
p8
aS'is'
p9
aS'wrong!'
p10
aS':-)'
p11
aS'with'
p12
aS'two'
p13
aS'attempts,'
p14
aS'you'
p15
aS'just'
p16
aS"can't"
p17
aS'afford'
p18
aS'to'
p19
aS'waste'
p20
aS'one'
p21
aS'due'
p22
aS'to'
p23
aS'erroneous'
p24
aS'instructions!'
p25
aS'positive'
p26
tp27
.((lp0
S'i'
p1
aS'see.'
p2
aS'the'
p3
aS'point'
p4
aS'is'
p5
aS'treat'
p6
aS'epi(f)'
p7
aS'as'
p8
aS'a'
p9
aS'vector'
p10
aS'(x,y).'
p11
aS"it's"
p12
aS'very'
p13
aS'clear'
p14
aS'explanation!'
p15
aS'many'
p16
aS'thanks'
p17
aS'for'
p18
aS'your'
p19
aS'help!'
p20
aS':d'
p21
aS'positive'
p22
tp23
.((lp0
S'use'
p1
aS"rand('state',5)"
p2
aS'to'
p3
aS'reset'
p4
aS'the'
p5
aS'generator'
p6
aS'for'
p7
aS'rand'
p8
aS'and'
p9
aS'then'
p10
aS'use'
p11
aS"randn('state',5)"
p12
aS'to'
p13
aS'reset'
p14
aS'for'
p15
aS'the'
p16
aS's'
p17
aS'matrix.'
p18
aS'and'
p19
aS'use'
p20
aS'standard'
p21
aS'deviations'
p22
aS'instead'
p23
aS'of'
p24
aS'variances'
p25
aS'as'
p26
aS'others'
p27
aS'have'
p28
aS'pointed'
p29
aS'out'
p30
aS':)'
p31
aS'positive'
p32
tp33
.((lp0
S'nice'
p1
aS'example,'
p2
aS'i'
p3
aS'got'
p4
aS'it!'
p5
aS'thank'
p6
aS'you'
p7
aS':)'
p8
aS'positive'
p9
tp10
.((lp0
S'=)'
p1
aS'my'
p2
aS'old'
p3
aS'job'
p4
aS'was'
p5
aS'asset'
p6
aS'allocation'
p7
aS'at'
p8
aS'an'
p9
aS'swf'
p10
aS'(sovereign'
p11
aS'wealth'
p12
aS'fund),'
p13
aS'so'
p14
aS'sd'
p15
aS'is'
p16
aS'the'
p17
aS'habitual'
p18
aS'measure.'
p19
aS"you're"
p20
aS'absolutely'
p21
aS'right'
p22
aS'that'
p23
aS"it's"
p24
aS'a'
p25
aS'units'
p26
aS'thing.'
p27
aS'people'
p28
aS'are'
p29
aS'a'
p30
aS'lot'
p31
aS'more'
p32
aS'comfortable'
p33
aS'talking'
p34
aS'about'
p35
aS'risk'
p36
aS'in'
p37
aS'the'
p38
aS'same'
p39
aS'units'
p40
aS'as'
p41
aS'returns'
p42
aS'(%)'
p43
aS'than'
p44
aS'in'
p45
aS'an'
p46
aS'odd'
p47
aS'unit'
p48
aS'like'
p49
aS'$%^2%.'
p50
aS'scalarizing'
p51
aS'with'
p52
aS'risk'
p53
aS'measured'
p54
aS'in'
p55
aS'sds'
p56
aS'means'
p57
aS'that'
p58
aS'$$/lambda$$'
p59
aS'is'
p60
aS'unit-less.'
p61
aS'jonas'
p62
aS'-'
p63
aS'your'
p64
aS'argument'
p65
aS'on'
p66
aS'square-root'
p67
aS'scaling'
p68
aS'requires'
p69
aS'independence'
p70
aS'of'
p71
aS'the'
p72
aS'bets/events.'
p73
aS'returns'
p74
aS'to'
p75
aS'perfectly'
p76
aS'correlated'
p77
aS'bets'
p78
aS'would'
p79
aS'scale'
p80
aS'with'
p81
aS'n'
p82
aS'(which'
p83
aS'violates'
p84
aS'many'
p85
aS'finance'
p86
aS'assumptions'
p87
aS'as'
p88
aS'such'
p89
aS'a'
p90
aS'market'
p91
aS'would'
p92
aS'be'
p93
aS'perfectly'
p94
aS'predictable.'
p95
aS')'
p96
aS'[as'
p97
aS'an'
p98
aS'aside'
p99
aS'-'
p100
aS'it'
p101
aS'looks'
p102
aS'like'
p103
aS'markdown'
p104
aS'hates'
p105
aS'me]'
p106
aS'positive'
p107
tp108
.((lp0
S'jonathan:'
p1
aS"you're"
p2
aS'completely'
p3
aS'right,'
p4
aS'thanks'
p5
aS'for'
p6
aS'the'
p7
aS'comment!'
p8
aS'the'
p9
aS'real'
p10
aS'thing'
p11
aS'is'
p12
aS'likely'
p13
aS'in-between'
p14
aS'completely'
p15
aS'noisy'
p16
aS'and'
p17
aS'completely'
p18
aS'predictable,'
p19
aS'which'
p20
aS'would'
p21
aS'correspond'
p22
aS'to'
p23
aS'a'
p24
aS'stochastic'
p25
aS'process'
p26
aS'with'
p27
aS'finite'
p28
aS'correlation'
p29
aS'time.'
p30
aS'in'
p31
aS'statistical'
p32
aS'physics'
p33
aS'we'
p34
aS'know'
p35
aS'how'
p36
aS'to'
p37
aS'do'
p38
aS'some'
p39
aS'perturbation'
p40
aS'theory'
p41
aS'for'
p42
aS'that.'
p43
aS'also,'
p44
aS'the'
p45
aS'returns'
p46
aS'distribution'
p47
aS'is'
p48
aS'likely'
p49
aS'skewed'
p50
aS'("non-gaussian"),'
p51
aS'which'
p52
aS'also'
p53
aS'would'
p54
aS'take'
p55
aS'some'
p56
aS'more'
p57
aS'calculation'
p58
aS'to'
p59
aS'incorporate..'
p60
aS'(it'
p61
aS'so'
p62
aS'happens,'
p63
aS'that'
p64
aS'turbulence'
p65
aS'statistics'
p66
aS'are'
p67
aS'also'
p68
aS'skewed,'
p69
aS'and'
p70
aS'have'
p71
aS'finite'
p72
aS'correlation'
p73
aS'time..).'
p74
aS'a'
p75
aS'second'
p76
aS'critique'
p77
aS'to'
p78
aS'my'
p79
aS'argument'
p80
aS'is'
p81
aS'that'
p82
aS'one'
p83
aS'would'
p84
aS'likely'
p85
aS'change'
p86
aS'$x$'
p87
aS'between'
p88
aS'"deals",'
p89
aS'so'
p90
aS'that'
p91
aS'would'
p92
aS'also'
p93
aS'have'
p94
aS'to'
p95
aS'be'
p96
aS'considered,'
p97
aS'but'
p98
aS'surely'
p99
aS'more'
p100
aS'well-paid'
p101
aS'people'
p102
aS'than'
p103
aS'me'
p104
aS'are'
p105
aS'already'
p106
aS'considering'
p107
aS'these'
p108
aS'things'
p109
aS'in'
p110
aS'painful'
p111
aS'detail'
p112
aS':)'
p113
aS'cheers'
p114
aS'positive'
p115
tp116
.((lp0
S'thanks'
p1
aS'guys,'
p2
aS'i'
p3
aS'just'
p4
aS'needed'
p5
aS'to'
p6
aS'take'
p7
aS'the'
p8
aS'sqrt'
p9
aS'of'
p10
aS'my'
p11
aS'answers'
p12
aS'like'
p13
aS'you'
p14
aS'said...'
p15
aS'was'
p16
aS'a'
p17
aS'bummer'
p18
aS'to'
p19
aS'see'
p20
aS'all'
p21
aS'wrong'
p22
aS'on'
p23
aS'1st'
p24
aS'try'
p25
aS':)'
p26
aS'positive'
p27
tp28
.((lp0
S'thanks.'
p1
aS'i'
p2
aS'got'
p3
aS'it'
p4
aS':)'
p5
aS'positive'
p6
tp7
.((lp0
S'remember'
p1
aS'that'
p2
aS'the'
p3
aS'question'
p4
aS'states'
p5
aS'we'
p6
aS'are'
p7
aS'looking'
p8
aS'for'
p9
aS'minimum'
p10
aS'portfolios'
p11
aS'with'
p12
aS'the'
p13
aS'*same'
p14
aS'expected'
p15
aS'return'
p16
aS'as'
p17
aS'the'
p18
aS'uniform'
p19
aS'portfolio*'
p20
aS':)'
p21
aS'positive'
p22
tp23
.((lp0
S'come'
p1
aS'join'
p2
aS'us'
p3
aS'over'
p4
aS'[here][1].'
p5
aS':)'
p6
aS'[1]:'
p7
aS'https://class.stanford.edu/courses/engineering/cvx1<zipredac>1/winter2<zipredac>14/discussion/forum/i4x-engineering-cvx1<zipredac>1-hw3/threads/52f<zipredac><zipredac>733c91dff<zipredac><phoneredac>78'
p8
aS'positive'
p9
tp10
.((lp0
S'yes,'
p1
aS'thanks'
p2
aS'indeed...'
p3
aS'the'
p4
aS'sqrt'
p5
aS'requirement'
p6
aS'is'
p7
aS'a'
p8
aS'bit'
p9
aS'misleading'
p10
aS'(this'
p11
aS'is'
p12
aS'an'
p13
aS'overstatement'
p14
aS':))'
p15
aS'when'
p16
aS'the'
p17
aS'problem'
p18
aS'statement'
p19
aS'*explicitly*'
p20
aS'says'
p21
aS"'**with"
p22
aS'risk'
p23
aS'measured'
p24
aS'by'
p25
aS'portfolio'
p26
aS'return'
p27
aS"variance**'"
p28
aS'positive'
p29
tp30
.((lp0
S"i'm"
p1
aS'a'
p2
aS'little'
p3
aS'confused'
p4
aS'about'
p5
aS'the'
p6
aS'third'
p7
aS'and'
p8
aS'the'
p9
aS'forth'
p10
aS'example'
p11
aS'in'
p12
aS'example'
p13
aS'3.14.'
p14
aS'the'
p15
aS'third'
p16
aS'one'
p17
aS'says'
p18
aS'that'
p19
aS'h(z)'
p20
aS'is'
p21
aS'a'
p22
aS'concave'
p23
aS'function.'
p24
aS'but'
p25
aS'as'
p26
aS'i'
p27
aS'know,'
p28
aS'the'
p29
aS'form'
p30
aS'of'
p31
aS'h(z)'
p32
aS'is'
p33
aS'exactly'
p34
aS'the'
p35
aS'lp'
p36
aS'norm'
p37
aS'and'
p38
aS'every'
p39
aS'norm'
p40
aS'is'
p41
aS'a'
p42
aS'convex'
p43
aS'function...is'
p44
aS'this'
p45
aS'a'
p46
aS'contradiction?'
p47
aS'how'
p48
aS'to'
p49
aS'prove'
p50
aS'the'
p51
aS'h(z)'
p52
aS'in'
p53
aS'the'
p54
aS'third'
p55
aS'example'
p56
aS'is'
p57
aS'a'
p58
aS'concave'
p59
aS'function'
p60
aS'and'
p61
aS'h(z)'
p62
aS'in'
p63
aS'the'
p64
aS'forth'
p65
aS'example'
p66
aS'is'
p67
aS'a'
p68
aS'convex'
p69
aS'one?'
p70
aS':)'
p71
aS'positive'
p72
tp73
.((lp0
S'[edit:'
p1
aS"didn't"
p2
aS'see'
p3
aS'your'
p4
aS'edit,'
p5
aS'sorry...'
p6
aS"here's"
p7
aS'my'
p8
aS'answer'
p9
aS'anyway.]'
p10
aS'first,'
p11
aS'check'
p12
aS'out'
p13
aS'[this'
p14
aS'thread][1].'
p15
aS'you'
p16
aS'should'
p17
aS'be'
p18
aS'entering'
p19
aS'the'
p20
aS'risk'
p21
aS'as'
p22
aS'standard'
p23
aS'deviation,'
p24
aS'not'
p25
aS'variance'
p26
aS'(yes,'
p27
aS'the'
p28
aS'question'
p29
aS"doesn't"
p30
aS'mention'
p31
aS'this,'
p32
aS'you'
p33
aS'should'
p34
aS'somehow'
p35
aS'just'
p36
aS'know'
p37
aS':)'
p38
aS'as'
p39
aS'for'
p40
aS'the'
p41
aS'change'
p42
aS'to'
p43
aS'an'
p44
aS'inequality'
p45
aS'not'
p46
aS'affecting'
p47
aS'the'
p48
aS'outcome,'
p49
aS'that'
p50
aS'is'
p51
aS'just'
p52
aS'as'
p53
aS'it'
p54
aS'should'
p55
aS'be,'
p56
aS'since'
p57
aS'minimizing'
p58
aS'risk'
p59
aS'naturally'
p60
aS'uses'
p61
aS'up'
p62
aS'all'
p63
aS'your'
p64
aS'leeway'
p65
aS'in'
p66
aS'return.'
p67
aS'[1]:'
p68
aS'https://class.stanford.edu/courses/engineering/cvx1<zipredac>1/winter2<zipredac>14/discussion/forum/i4x-engineering-cvx1<zipredac>1-hw3/threads/52f<zipredac><zipredac>733c91dff<zipredac><phoneredac>78'
p69
aS'positive'
p70
tp71
.((lp0
S'sorry'
p1
aS'for'
p2
aS'the'
p3
aS're-posting.'
p4
aS'i'
p5
aS"didn't"
p6
aS'check'
p7
aS'the'
p8
aS'previous'
p9
aS'posts'
p10
aS'carefully.'
p11
aS'clear'
p12
aS'explanation.'
p13
aS'i'
p14
aS'began'
p15
aS'to'
p16
aS'realize'
p17
aS'this'
p18
aS'would'
p19
aS'not'
p20
aS'be'
p21
aS'an'
p22
aS'easy'
p23
aS'course'
p24
aS'now:)'
p25
aS'thanks.'
p26
aS'positive'
p27
tp28
.((lp0
S'you'
p1
aS'can'
p2
aS'create'
p3
aS'the'
p4
aS'plots'
p5
aS'by'
p6
aS'using'
p7
aS'wolframalpha'
p8
aS'(or'
p9
aS'if'
p10
aS'you'
p11
aS'have'
p12
aS'it,'
p13
aS'you'
p14
aS'can'
p15
aS'also'
p16
aS'use'
p17
aS'mathematica).'
p18
aS'http://www.wolframalpha.com/input/?i=plot+xy'
p19
aS'i'
p20
aS'used'
p21
aS'the'
p22
aS'function'
p23
aS'from'
p24
aS'the'
p25
aS'homework.'
p26
aS'$f(x,y)'
p27
aS'='
p28
aS'xy$'
p29
aS'positive'
p30
tp31
.((lp0
S'it'
p1
aS'is'
p2
aS'not'
p3
aS'hard,'
p4
aS'it'
p5
aS'is'
p6
aS'high'
p7
aS'school'
p8
aS'level.'
p9
aS'only'
p10
aS'basic'
p11
aS'things'
p12
aS':)'
p13
aS'the'
p14
aS'worse'
p15
aS'is'
p16
aS'that'
p17
aS'it'
p18
aS'is'
p19
aS'both'
p20
aS'true'
p21
aS'and'
p22
aS'false'
p23
aS'statement'
p24
aS':)'
p25
aS'positive'
p26
tp27
.((lp0
S'thank'
p1
aS'you'
p2
aS':)'
p3
aS'positive'
p4
tp5
.((lp0
S'it'
p1
aS'seems'
p2
aS'that'
p3
aS'the'
p4
aS'answer'
p5
aS'for'
p6
aS'this'
p7
aS'quiz'
p8
aS'is'
p9
aS'wrong'
p10
aS'because'
p11
aS'i'
p12
aS'submitted'
p13
aS'exactly'
p14
aS'the'
p15
aS'right'
p16
aS'answer,'
p17
aS'but'
p18
aS'it'
p19
aS'was'
p20
aS'marked'
p21
aS'as'
p22
aS'wrong'
p23
aS';)'
p24
aS'positive'
p25
tp26
.((lp0
S'hi'
p1
aS'all,'
p2
aS'i'
p3
aS'just'
p4
aS'went'
p5
aS'through'
p6
aS'the'
p7
aS'homework'
p8
aS'assignment'
p9
aS'on'
p10
aS'portfolio'
p11
aS'optimization,'
p12
aS'and'
p13
aS'i'
p14
aS'was'
p15
aS'wondering'
p16
aS'if'
p17
aS'anyone'
p18
aS'could'
p19
aS'provide'
p20
aS'some'
p21
aS'intuition'
p22
aS'behind'
p23
aS'the'
p24
aS'data'
p25
aS'that'
p26
aS'was'
p27
aS'provided'
p28
aS'for'
p29
aS'the'
p30
aS'problem:'
p31
aS'n=20;'
p32
aS"rng(5,'v5uniform');"
p33
aS'pbar'
p34
aS'='
p35
aS'ones(n,1)*.03+[rand(n-1,1);'
p36
aS'0]*.12;'
p37
aS"rng(5,'v5normal');"
p38
aS's'
p39
aS'='
p40
aS'randn(n,n);'
p41
aS's'
p42
aS'='
p43
aS"s'*s;"
p44
aS's'
p45
aS'='
p46
aS's/max(abs(diag(s)))*.2;'
p47
aS's(:,n)'
p48
aS'='
p49
aS'zeros(n,1);'
p50
aS's(n,:)'
p51
aS'='
p52
aS"zeros(n,1)';"
p53
aS'x_unif'
p54
aS'='
p55
aS'ones(n,1)/n;'
p56
aS'in'
p57
aS'particular,'
p58
aS"i'm"
p59
aS'not'
p60
aS'sure'
p61
aS'why'
p62
aS'the'
p63
aS'definition'
p64
aS'for'
p65
aS'pbar'
p66
aS'had'
p67
aS'the'
p68
aS'scaling'
p69
aS'.03'
p70
aS'and'
p71
aS'.12'
p72
aS'and'
p73
aS'why'
p74
aS'we'
p75
aS'divided'
p76
aS'the'
p77
aS'matrix'
p78
aS"s'*s"
p79
aS'by'
p80
aS'max(abs(diag(s)))*.2.'
p81
aS'thanks'
p82
aS'in'
p83
aS'advance!'
p84
aS'positive'
p85
tp86
.((lp0
S'i'
p1
aS'believe'
p2
aS'you'
p3
aS'just'
p4
aS'gave'
p5
aS'up'
p6
aS'(at'
p7
aS'least'
p8
aS'part'
p9
aS'of)'
p10
aS'the'
p11
aS'answer'
p12
aS':)'
p13
aS'positive'
p14
tp15
.((lp0
S'hi'
p1
aS'=)'
p2
aS"i'd"
p3
aS'be'
p4
aS'thankful'
p5
aS'if'
p6
aS'you'
p7
aS'could'
p8
aS'explain'
p9
aS'how'
p10
aS'the'
p11
aS'primal'
p12
aS'problem'
p13
aS'in'
p14
aS'slide'
p15
aS'5-14'
p16
aS'got'
p17
aS'its'
p18
aS'dual'
p19
aS'problem'
p20
aS'..'
p21
aS'i'
p22
aS'had'
p23
aS'a'
p24
aS'look'
p25
aS'at'
p26
aS'sdp'
p27
aS'but'
p28
aS'could'
p29
aS'not'
p30
aS'get'
p31
aS'it'
p32
aS'how'
p33
aS'it'
p34
aS'is'
p35
aS'being'
p36
aS'formulated'
p37
aS'thank'
p38
aS'you'
p39
aS'!'
p40
aS'positive'
p41
tp42
.((lp0
S'here'
p1
aS'some'
p2
aS'intuition...'
p3
aS'$p'
p4
aS'='
p5
aS'ext{'
p6
aS'drift'
p7
aS'}'
p8
aS'+'
p9
aS'ext'
p10
aS'{'
p11
aS'random'
p12
aS'stuff'
p13
aS'}$'
p14
aS'you'
p15
aS'have'
p16
aS'a'
p17
aS'drift'
p18
aS'parameter,'
p19
aS'in'
p20
aS'this'
p21
aS'case'
p22
aS'$0.03$.'
p23
aS'the'
p24
aS'market'
p25
aS'itself'
p26
aS'tends'
p27
aS'to'
p28
aS'have'
p29
aS'some'
p30
aS'drift,'
p31
aS'i.e.'
p32
aS'the'
p33
aS'market'
p34
aS'portfolio'
p35
aS"doesn't"
p36
aS'have'
p37
aS'expected'
p38
aS'return'
p39
aS'0.'
p40
aS'the'
p41
aS'"random'
p42
aS'stuff"'
p43
aS'is'
p44
aS'the'
p45
aS'idea'
p46
aS'that'
p47
aS'each'
p48
aS'asset'
p49
aS'has'
p50
aS'its'
p51
aS'own'
p52
aS'behavior,'
p53
aS'e.g.'
p54
aS'asset'
p55
aS'$i$'
p56
aS'can'
p57
aS'go'
p58
aS'up,'
p59
aS'while'
p60
aS'asset'
p61
aS'$j$'
p62
aS'can'
p63
aS'go'
p64
aS'down.'
p65
aS'ones(n,1)*.03'
p66
aS'is'
p67
aS'your'
p68
aS'drift'
p69
aS'[rand(n-1),'
p70
aS'1);'
p71
aS'0]*.12'
p72
aS'is'
p73
aS'the'
p74
aS'random'
p75
aS'behavior'
p76
aS'of'
p77
aS'your'
p78
aS'assets,'
p79
aS'note'
p80
aS'that'
p81
aS'the'
p82
aS'last'
p83
aS'asset'
p84
aS'does'
p85
aS'not'
p86
aS'have'
p87
aS'any'
p88
aS'randomness'
p89
aS'in'
p90
aS'it'
p91
aS"(it's"
p92
aS'risk'
p93
aS'free,'
p94
aS'e.g.'
p95
aS'some'
p96
aS'long-term'
p97
aS'bond'
p98
aS'that'
p99
aS'guarantess'
p100
aS'3%'
p101
aS'return).'
p102
aS's'
p103
aS'='
p104
aS'randn(n,n);'
p105
aS's'
p106
aS'='
p107
aS"s'*s;"
p108
aS's'
p109
aS'='
p110
aS's/max(abs(diag(s)))*.2;'
p111
aS's(:,n)'
p112
aS'='
p113
aS'zeros(n,1);'
p114
aS's(n,:)'
p115
aS'='
p116
aS"zeros(n,1)';"
p117
aS'creates'
p118
aS'a'
p119
aS'random'
p120
aS'covariance'
p121
aS'matrix.'
p122
aS"it's"
p123
aS'a'
p124
aS'simplified'
p125
aS'model'
p126
aS'for'
p127
aS'"educational'
p128
aS'purposes."'
p129
aS'if'
p130
aS"you're"
p131
aS'interested'
p132
aS'in'
p133
aS'the'
p134
aS'topic,'
p135
aS'check'
p136
aS'out'
p137
aS"uchicago's"
p138
aS'asset'
p139
aS'pricing'
p140
aS'course'
p141
aS'on'
p142
aS'coursera.'
p143
aS'positive'
p144
tp145
.((lp0
S'actually,'
p1
aS'by'
p2
aS'showing'
p3
aS'above'
p4
aS'the'
p5
aS'matlab'
p6
aS'output,'
p7
aS'you'
p8
aS'give'
p9
aS'up'
p10
aS'the'
p11
aS'answer'
p12
aS'to'
p13
aS'the'
p14
aS'second'
p15
aS'question'
p16
aS':)'
p17
aS"you're"
p18
aS'right'
p19
aS'about'
p20
aS'the'
p21
aS'objective'
p22
aS'function:'
p23
aS'i'
p24
aS'believe'
p25
aS'that'
p26
aS'is'
p27
aS'the'
p28
aS'key'
p29
aS'in'
p30
aS'solving'
p31
aS'this'
p32
aS'problem.'
p33
aS'once'
p34
aS'you'
p35
aS'factor'
p36
aS'correctly'
p37
aS'the'
p38
aS'quadratic'
p39
aS'function'
p40
aS'to'
p41
aS'be'
p42
aS'minimized'
p43
aS'(so'
p44
aS'it'
p45
aS'can'
p46
aS'be'
p47
aS'used'
p48
aS'by'
p49
aS'cvx),'
p50
aS'the'
p51
aS'rest'
p52
aS'seems'
p53
aS'to'
p54
aS'be'
p55
aS'just'
p56
aS'work'
p57
aS'for'
p58
aS'the'
p59
aS'computer...'
p60
aS'btw:'
p61
aS'i'
p62
aS'got'
p63
aS'the'
p64
aS'same'
p65
aS'result'
p66
aS'for'
p67
aS'the'
p68
aS'dual'
p69
aS'variables'
p70
aS'(and'
p71
aS'therefore'
p72
aS'for'
p73
aS'the'
p74
aS'primal'
p75
aS'ones)'
p76
aS'positive'
p77
tp78
.((lp0
S'ah'
p1
aS'of'
p2
aS'course!'
p3
aS'fixed'
p4
aS':)'
p5
aS'positive'
p6
tp7
.((lp0
S'that'
p1
aS'is'
p2
aS'a'
p3
aS'fairly'
p4
aS'good'
p5
aS'indication'
p6
aS'of'
p7
aS'an'
p8
aS'error'
p9
aS':)'
p10
aS'positive'
p11
tp12
.((lp0
S'i'
p1
aS"wasn't"
p2
aS'even'
p3
aS'able'
p4
aS'to'
p5
aS'download'
p6
aS'it.'
p7
aS'from'
p8
aS'the'
p9
aS'download'
p10
aS'page'
p11
aS'it'
p12
aS'takes'
p13
aS'me'
p14
aS'to'
p15
aS'the'
p16
aS'product'
p17
aS'presentation,'
p18
aS'and'
p19
aS'i'
p20
aS'have'
p21
aS'no'
p22
aS'idea'
p23
aS'what'
p24
aS'to'
p25
aS'do'
p26
aS'next.'
p27
aS'i'
p28
aS'feel'
p29
aS'very'
p30
aS'stupid'
p31
aS'and'
p32
aS'discouraged'
p33
aS':('
p34
aS'negative'
p35
tp36
.((lp0
S'just'
p1
aS'noticed'
p2
aS'that'
p3
aS'the'
p4
aS'solutions'
p5
aS'require'
p6
aS'an'
p7
aS'id'
p8
aS':('
p9
aS'negative'
p10
tp11
.((lp0
S"it's"
p1
aS'possible'
p2
aS'for'
p3
aS'$a$'
p4
aS'to'
p5
aS'have'
p6
aS'rank'
p7
aS'$n$'
p8
aS'and'
p9
aS'for'
p10
aS'$ax=b$'
p11
aS'to'
p12
aS'be'
p13
aS'an'
p14
aS'inconsistent'
p15
aS'system'
p16
aS'of'
p17
aS'equations'
p18
aS'if'
p19
aS'$a$'
p20
aS'has'
p21
aS'$m$'
p22
aS'rows'
p23
aS'and'
p24
aS'$m>n$.'
p25
aS'$x=(a^{t}a)^{-1}a^{t}b$'
p26
aS'does'
p27
aS'give'
p28
aS'the'
p29
aS'unique'
p30
aS'least'
p31
aS'squares'
p32
aS'solution'
p33
aS'in'
p34
aS'this'
p35
aS'case.'
p36
aS'negative'
p37
tp38
.((lp0
S're'
p1
aS'question'
p2
aS'1:'
p3
aS'note'
p4
aS'that'
p5
aS'it'
p6
aS'says'
p7
aS'the'
p8
aS'sum'
p9
aS'of'
p10
aS'each'
p11
aS'of'
p12
aS'the'
p13
aS'components'
p14
aS'of'
p15
aS'a'
p16
aS'3-dimensional'
p17
aS'point,'
p18
aS'and'
p19
aS'that'
p20
aS'is'
p21
aS'a'
p22
aS'real'
p23
aS'number.'
p24
aS'so'
p25
aS"there's"
p26
aS'no'
p27
aS'typo.'
p28
aS're'
p29
aS'question'
p30
aS'2:'
p31
aS"i'm"
p32
aS'still'
p33
aS'trying'
p34
aS'to'
p35
aS'figure'
p36
aS'out'
p37
aS'what'
p38
aS'it'
p39
aS'means'
p40
aS'and'
p41
aS'how'
p42
aS'to'
p43
aS'solve'
p44
aS'it'
p45
aS':-('
p46
aS'negative'
p47
tp48
.((lp0
S'let'
p1
aS'us'
p2
aS'take'
p3
aS'the'
p4
aS'case'
p5
aS'of'
p6
aS'more'
p7
aS'than'
p8
aS'one'
p9
aS'line.'
p10
aS'consider'
p11
aS'points'
p12
aS'$x1=(0,0)$,$x2=(1,0)$'
p13
aS'and'
p14
aS'$x3=(0,1)$.'
p15
aS'lines'
p16
aS'through'
p17
aS'the'
p18
aS'above'
p19
aS'points'
p20
aS'forms'
p21
aS'triangle.'
p22
aS'now'
p23
aS'consider'
p24
aS'the'
p25
aS'combinations'
p26
aS'according'
p27
aS'to'
p28
aS'$x=(1-'
p29
aS'heta)x2+'
p30
aS'heta'
p31
aS'x3$,'
p32
aS'when'
p33
aS'$'
p34
aS'heta=0.5$,'
p35
aS'the'
p36
aS'resultant'
p37
aS'point'
p38
aS'will'
p39
aS'be'
p40
aS'$x=(0.5,'
p41
aS'0.5)$.'
p42
aS'the'
p43
aS'question'
p44
aS'is'
p45
aS'whether'
p46
aS'$x$'
p47
aS'is'
p48
aS'affine'
p49
aS'set'
p50
aS'or'
p51
aS'convex'
p52
aS'set'
p53
aS'or'
p54
aS'both.'
p55
aS'is'
p56
aS'it'
p57
aS'the'
p58
aS'inequality'
p59
aS'in'
p60
aS'$ax'
p61
aS'leq'
p62
aS'b$'
p63
aS'that'
p64
aS'differentiates'
p65
aS'affine'
p66
aS'and'
p67
aS'convex'
p68
aS'sets.'
p69
aS'negative'
p70
tp71
.((lp0
S'we'
p1
aS'are'
p2
aS'told'
p3
aS'the'
p4
aS'following:'
p5
aS'we'
p6
aS'define'
p7
aS'$(x)_+=max{0,x}'
p8
aS'ext{and'
p9
aS'}'
p10
aS'(x)_?=max{0,?x},'
p11
aS'ext{so'
p12
aS'}'
p13
aS'x=(x)_+?(x)_?$.'
p14
aS'my'
p15
aS'question'
p16
aS'is'
p17
aS'what'
p18
aS'if'
p19
aS'$x'
p20
aS'in'
p21
aS'r^n$?'
p22
aS'are'
p23
aS'we'
p24
aS'supposed'
p25
aS'to'
p26
aS'interpret'
p27
aS'the'
p28
aS'definition'
p29
aS'of'
p30
aS'$(x)_-$'
p31
aS'and'
p32
aS'$(x)_+$'
p33
aS'as'
p34
aS'applying'
p35
aS'componentwise?'
p36
aS'that'
p37
aS'is'
p38
aS'to'
p39
aS'say,'
p40
aS'let'
p41
aS'$x'
p42
aS'='
p43
aS'[-1,'
p44
aS'5]$.'
p45
aS'then,'
p46
aS'$(x)_-'
p47
aS'='
p48
aS'[1,'
p49
aS'0]$'
p50
aS'and'
p51
aS'$(x)_+'
p52
aS'='
p53
aS'[0,'
p54
aS'5]$'
p55
aS'from'
p56
aS'the'
p57
aS'fact'
p58
aS'that'
p59
aS'$x=(x)_+?(x)_?$,'
p60
aS'i'
p61
aS'think'
p62
aS'it'
p63
aS'should'
p64
aS'be'
p65
aS'defined'
p66
aS'componentwise'
p67
aS'for'
p68
aS'vectors'
p69
aS'but'
p70
aS'i'
p71
aS'wanted'
p72
aS'to'
p73
aS'give'
p74
aS'a'
p75
aS'heads'
p76
aS'up'
p77
aS'and'
p78
aS'check'
p79
aS'with'
p80
aS'my'
p81
aS'colleagues'
p82
aS'and'
p83
aS'classmates'
p84
aS'just'
p85
aS'in'
p86
aS'case.'
p87
aS'update:'
p88
aS'i'
p89
aS'think'
p90
aS'they'
p91
aS'use'
p92
aS'bold'
p93
aS'max,'
p94
aS'i.e.'
p95
aS'$mathbf{max}$,'
p96
aS'which'
p97
aS'indicates'
p98
aS'a'
p99
aS'componentwise'
p100
aS'vector'
p101
aS'operation.'
p102
aS'negative'
p103
tp104
.((lp0
S'you'
p1
aS'should'
p2
aS'try'
p3
aS'to'
p4
aS'rewrite'
p5
aS'$1^t(x)_-leq(1/2)1^t(x)_+$'
p6
aS'as'
p7
aS'$1^t(x)_--(1/2)1^t(x)_+leq0$.'
p8
aS'split'
p9
aS'the'
p10
aS'term'
p11
aS'$1^t(x)_-$'
p12
aS'and'
p13
aS'remember'
p14
aS'that'
p15
aS'$x=(x)_+-(x)_-$.'
p16
aS'the'
p17
aS'goal'
p18
aS'is'
p19
aS'to'
p20
aS'find'
p21
aS'the'
p22
aS'equation'
p23
aS'defines'
p24
aS'a'
p25
aS'convex'
p26
aS'set'
p27
aS'such'
p28
aS'as'
p29
aS'a'
p30
aS'hyperplane,'
p31
aS'halfspace,'
p32
aS'cone,'
p33
aS'etc.'
p34
aS'negative'
p35
tp36
.((lp0
S'hi'
p1
aS'all,'
p2
aS'in'
p3
aS'3.2.1'
p4
aS'subsection-"operations'
p5
aS'that'
p6
aS'preserve'
p7
aS'convexity",'
p8
aS'to'
p9
aS'verify'
p10
aS'that'
p11
aS'convexity'
p12
aS'is'
p13
aS'preserved'
p14
aS'under'
p15
aS'nonnegative'
p16
aS'scaling'
p17
aS'and'
p18
aS'addition'
p19
aS'there'
p20
aS'is'
p21
aS'the'
p22
aS'following'
p23
aS'equation:'
p24
aS'epi(wf)'
p25
aS'=['
p26
aS'i'
p27
aS'0'
p28
aS';0'
p29
aS'w'
p30
aS']'
p31
aS'epi(f)'
p32
aS'it'
p33
aS'should'
p34
aS'be'
p35
aS'straightforward'
p36
aS'to'
p37
aS'understand.'
p38
aS'but'
p39
aS'i'
p40
aS'can'
p41
aS'not'
p42
aS'see'
p43
aS'it.'
p44
aS'could'
p45
aS'anyone'
p46
aS'please'
p47
aS'explain'
p48
aS'why'
p49
aS'this'
p50
aS'equation'
p51
aS'holds?'
p52
aS'i'
p53
aS'will'
p54
aS'appreciate'
p55
aS'a'
p56
aS'lot'
p57
aS'your'
p58
aS'kind'
p59
aS'help!'
p60
aS'specifically,'
p61
aS'what'
p62
aS'i'
p63
aS'already'
p64
aS'know'
p65
aS'is'
p66
aS'the'
p67
aS'definition'
p68
aS'of'
p69
aS'epigraph.'
p70
aS'but'
p71
aS'it'
p72
aS"doesn't"
p73
aS'make'
p74
aS'sense'
p75
aS'to'
p76
aS'me'
p77
aS'the'
p78
aS'product'
p79
aS'of'
p80
aS'the'
p81
aS'matrix'
p82
aS'[i'
p83
aS'0'
p84
aS';0'
p85
aS'w'
p86
aS']'
p87
aS'and'
p88
aS'epi(f).'
p89
aS'best,'
p90
aS'<nameredac_anon_screen_name_redacted>'
p91
aS'negative'
p92
tp93
.((lp0
S'convex'
p1
aS'functions'
p2
aS'->'
p3
aS'basic'
p4
aS'problems'
p5
aS'and'
p6
aS'examples'
p7
aS'->'
p8
aS'problem'
p9
aS'2'
p10
aS'question'
p11
aS'2'
p12
aS'(1/1'
p13
aS'points)'
p14
aS'we'
p15
aS'define'
p16
aS'(x)+=max{0,x}'
p17
aS'and'
p18
aS'(x)?=max{0,?x},'
p19
aS'so'
p20
aS'x=(x)+?(x)?.'
p21
aS'is'
p22
aS'{x?rn?1t(x)??(1/2)1t(x)+}'
p23
aS'a'
p24
aS'convex'
p25
aS'set?'
p26
aS'negative'
p27
tp28
.((lp0
S'hi'
p1
aS'all,'
p2
aS'the'
p3
aS'exercise'
p4
aS'3.3'
p5
aS'on'
p6
aS'the'
p7
aS'text'
p8
aS'book'
p9
aS'is'
p10
aS'about'
p11
aS'finding'
p12
aS'out'
p13
aS'the'
p14
aS'convexity/concavity'
p15
aS'of'
p16
aS'the'
p17
aS'inverse'
p18
aS'function'
p19
aS'of'
p20
aS'a'
p21
aS'increasing'
p22
aS'and'
p23
aS'convex'
p24
aS'function'
p25
aS'f.'
p26
aS'>suppose'
p27
aS'f'
p28
aS':'
p29
aS'r'
p30
aS'?'
p31
aS'r'
p32
aS'is'
p33
aS'increasing'
p34
aS'and'
p35
aS'convex'
p36
aS'on'
p37
aS'its'
p38
aS'domain'
p39
aS'(a,'
p40
aS'b).'
p41
aS'let'
p42
aS'g'
p43
aS'denote'
p44
aS'its'
p45
aS'inverse,'
p46
aS'i.e.,'
p47
aS'the'
p48
aS'function'
p49
aS'with'
p50
aS'domain'
p51
aS'(f'
p52
aS'(a),'
p53
aS'f'
p54
aS'(b))'
p55
aS'and'
p56
aS'g(f'
p57
aS'(x))'
p58
aS'='
p59
aS'x'
p60
aS'for'
p61
aS'a'
p62
aS'<'
p63
aS'x'
p64
aS'<'
p65
aS'b.'
p66
aS'what'
p67
aS'can'
p68
aS'you'
p69
aS'say'
p70
aS'about'
p71
aS'convexity'
p72
aS'or'
p73
aS'concavity'
p74
aS'of'
p75
aS'g?"'
p76
aS'it'
p77
aS'is'
p78
aS'not'
p79
aS'hard'
p80
aS'to'
p81
aS'figure'
p82
aS'out'
p83
aS'g'
p84
aS'is'
p85
aS'concave.'
p86
aS'but'
p87
aS'i'
p88
aS'can'
p89
aS'not'
p90
aS'understand'
p91
aS'the'
p92
aS'epigraph/hypograph'
p93
aS'version'
p94
aS'of'
p95
aS'illustration'
p96
aS'of'
p97
aS'this'
p98
aS'problem.'
p99
aS'the'
p100
aS'solution'
p101
aS'is'
p102
aS'as'
p103
aS'follows:'
p104
aS'>hypo(g)={(y,t)|t<=g(y)}'
p105
aS'>>={(y,t)|f(t)<=f(g(y))}'
p106
aS'>>={(y,t)|f(t)<=y}'
p107
aS'>>=[0'
p108
aS'1;'
p109
aS'1'
p110
aS'0]epi(f)'
p111
aS'why'
p112
aS'the'
p113
aS'last'
p114
aS'two'
p115
aS'steps'
p116
aS'happen?'
p117
aS'i'
p118
aS'can'
p119
aS'not'
p120
aS'understand.'
p121
aS'i'
p122
aS'will'
p123
aS'appreciate'
p124
aS'a'
p125
aS'lot'
p126
aS'any'
p127
aS'help'
p128
aS'from'
p129
aS'you!'
p130
aS'thanks!'
p131
aS'negative'
p132
tp133
.((lp0
S'hi'
p1
aS'yshklarov,'
p2
aS'your'
p3
aS'comment'
p4
aS'helps'
p5
aS'a'
p6
aS'lot!'
p7
aS'i'
p8
aS'was'
p9
aS'confused'
p10
aS'by'
p11
aS'the'
p12
aS'direction'
p13
aS'or'
p14
aS'shape'
p15
aS'of'
p16
aS'the'
p17
aS'epigraph.'
p18
aS'if'
p19
aS'dom(f)=[a,b],'
p20
aS'then'
p21
aS'it'
p22
aS'should'
p23
aS'be'
p24
aS'unable'
p25
aS'to'
p26
aS'do'
p27
aS'the'
p28
aS'last'
p29
aS'step.'
p30
aS'but'
p31
aS'since'
p32
aS'here'
p33
aS'dom(f)=r,'
p34
aS'it'
p35
aS'make'
p36
aS'great'
p37
aS'sense'
p38
aS'to'
p39
aS'do'
p40
aS'the'
p41
aS'last'
p42
aS'step.'
p43
aS'thanks'
p44
aS'for'
p45
aS'your'
p46
aS'help'
p47
aS'again!'
p48
aS'negative'
p49
tp50
.((lp0
S'any'
p1
aS'idea'
p2
aS'how'
p3
aS'the'
p4
aS'grading'
p5
aS'is'
p6
aS'being'
p7
aS'done'
p8
aS'?'
p9
aS'i'
p10
aS'suppose'
p11
aS'the'
p12
aS'answers'
p13
aS'are'
p14
aS'not'
p15
aS'unique..'
p16
aS'i'
p17
aS'get'
p18
aS'different'
p19
aS'yet'
p20
aS'comparable'
p21
aS'results'
p22
aS'every'
p23
aS'time'
p24
aS'i'
p25
aS'run'
p26
aS'the'
p27
aS'code'
p28
aS'..'
p29
aS'and'
p30
aS'the'
p31
aS'answers'
p32
aS'are'
p33
aS'pretty'
p34
aS'close'
p35
aS'to'
p36
aS'the'
p37
aS'suggested'
p38
aS'answer'
p39
aS'..'
p40
aS'it'
p41
aS'is'
p42
aS'sad'
p43
aS'to'
p44
aS'see'
p45
aS'all'
p46
aS'xs'
p47
aS':('
p48
aS'please'
p49
aS'staff.'
p50
aS'have'
p51
aS'a'
p52
aS'look'
p53
aS'at'
p54
aS'this'
p55
aS'!'
p56
aS'thanks'
p57
aS'a'
p58
aS'lot'
p59
aS'!'
p60
aS'negative'
p61
tp62
.((lp0
S'[edit:'
p1
aS'sorry,'
p2
aS'i'
p3
aS'missed'
p4
aS'the'
p5
aS'other'
p6
aS'thread'
p7
aS'on'
p8
aS'this'
p9
aS'topic'
p10
aS'[here][1]]'
p11
aS'hi,'
p12
aS'is'
p13
aS'anybody'
p14
aS'else'
p15
aS'having'
p16
aS'trouble'
p17
aS'with'
p18
aS'the'
p19
aS'last'
p20
aS'part'
p21
aS'of'
p22
aS'hw3?'
p23
aS'the'
p24
aS'earlier'
p25
aS'sections'
p26
aS'went'
p27
aS'fine'
p28
aS'but'
p29
aS'here'
p30
aS'on'
p31
aS'my'
p32
aS'first'
p33
aS'attempt'
p34
aS'i'
p35
aS'had'
p36
aS'no'
p37
aS'questions'
p38
aS'correct'
p39
aS':('
p40
aS'i'
p41
aS'implemented'
p42
aS'the'
p43
aS'classical'
p44
aS'portfolio'
p45
aS'optimization'
p46
aS'problem'
p47
aS'in'
p48
aS'cvx,'
p49
aS'in'
p50
aS'the'
p51
aS'same'
p52
aS'way'
p53
aS'as'
p54
aS'it'
p55
aS'is'
p56
aS'described'
p57
aS'on'
p58
aS'page'
p59
aS'155'
p60
aS'of'
p61
aS'the'
p62
aS'book,'
p63
aS'but'
p64
aS'without'
p65
aS'the'
p66
aS'constraint'
p67
aS'on'
p68
aS'short'
p69
aS'positions'
p70
aS'(except'
p71
aS'for'
p72
aS'the'
p73
aS'third'
p74
aS'part'
p75
aS'of'
p76
aS'the'
p77
aS'problem).'
p78
aS'as'
p79
aS'answer'
p80
aS'i'
p81
aS'take'
p82
aS'the'
p83
aS'risk'
p84
aS'term,'
p85
aS'which'
p86
aS'i'
p87
aS'understand'
p88
aS'to'
p89
aS'be'
p90
aS"x'"
p91
aS'*'
p92
aS's'
p93
aS'*'
p94
aS'x,'
p95
aS'where'
p96
aS'x'
p97
aS'is'
p98
aS'the'
p99
aS'solution'
p100
aS'variable.'
p101
aS'the'
p102
aS'risk'
p103
aS'values'
p104
aS'i'
p105
aS'find'
p106
aS'are'
p107
aS'typically'
p108
aS'very'
p109
aS'small'
p110
aS'(order'
p111
aS'1<zipredac>*-3,'
p112
aS'1<zipredac>*-4).'
p113
aS'as'
p114
aS'one'
p115
aS'of'
p116
aS'the'
p117
aS'constraints'
p118
aS'i'
p119
aS'have'
p120
aS'that'
p121
aS"pbar'"
p122
aS'*'
p123
aS'x'
p124
aS'=='
p125
aS"pbar'"
p126
aS'*'
p127
aS'x_unif'
p128
aS'(since'
p129
aS'the'
p130
aS'assignment'
p131
aS'says'
p132
aS'"find'
p133
aS'minimum-risk'
p134
aS'portfolios'
p135
aS'with'
p136
aS'the'
p137
aS'same'
p138
aS'expected'
p139
aS'return'
p140
aS'as'
p141
aS'the'
p142
aS'uniform'
p143
aS'portfolio"),'
p144
aS'but'
p145
aS'when'
p146
aS'i'
p147
aS'change'
p148
aS'it'
p149
aS'to'
p150
aS'an'
p151
aS'inequality'
p152
aS'(accept'
p153
aS'solutions'
p154
aS'at'
p155
aS'least'
p156
aS'as'
p157
aS'good'
p158
aS'as'
p159
aS'the'
p160
aS'uniform'
p161
aS'portfolio)'
p162
aS'this'
p163
aS'does'
p164
aS'not'
p165
aS'really'
p166
aS'seem'
p167
aS'to'
p168
aS'affect'
p169
aS'my'
p170
aS'outcome.'
p171
aS'any'
p172
aS'suggestions'
p173
aS'as'
p174
aS'to'
p175
aS'what'
p176
aS'i'
p177
aS'might'
p178
aS'be'
p179
aS'doing'
p180
aS'wrong?'
p181
aS'thanks!'
p182
aS'<nameredac_anon_screen_name_redacted>'
p183
aS'[1]:'
p184
aS'https://class.stanford.edu/courses/engineering/cvx1<zipredac>1/winter2<zipredac>14/discussion/forum/i4x-engineering-cvx1<zipredac>1-hw3/threads/52f<zipredac><zipredac>733c91dff<zipredac><phoneredac>78'
p185
aS'"here"'
p186
aS'negative'
p187
tp188
.((lp0
S'ah'
p1
aS'of'
p2
aS'course!'
p3
aS'i'
p4
aS'feel'
p5
aS'silly'
p6
aS'to'
p7
aS'not'
p8
aS'think'
p9
aS'about'
p10
aS'that'
p11
aS'option.'
p12
aS'anyway,'
p13
aS'i'
p14
aS'implemented'
p15
aS'it'
p16
aS'and'
p17
aS'my'
p18
aS'upper'
p19
aS'bound'
p20
aS'decreased'
p21
aS'with'
p22
aS'0.0024.'
p23
aS'i'
p24
aS'guess'
p25
aS'it'
p26
aS'is'
p27
aS'still'
p28
aS'so'
p29
aS'close'
p30
aS'enough'
p31
aS'that'
p32
aS'both'
p33
aS'are'
p34
aS'recognized'
p35
aS'as'
p36
aS'"correct"'
p37
aS'by'
p38
aS'the'
p39
aS'system.'
p40
aS'my'
p41
aS'new'
p42
aS'lower'
p43
aS'bound'
p44
aS'is'
p45
aS'positive,'
p46
aS'but'
p47
aS'still'
p48
aS'not'
p49
aS'correct'
p50
aS':('
p51
aS'negative'
p52
tp53
.((lp0
S'suppose'
p1
aS'$x=(x_1,x_2)$,'
p2
aS'then'
p3
aS'$xin[0,1]^2$'
p4
aS'means'
p5
aS'$x_iin[0,1],~~i=1,2$.'
p6
aS'negative'
p7
tp8
.((lp0
S'this'
p1
aS'is'
p2
aS'a'
p3
aS'[cartesian'
p4
aS'product][1]'
p5
aS'of'
p6
aS'$[0,1]$'
p7
aS'with'
p8
aS'itself.'
p9
aS'$[0,1]^2=[0,1]'
p10
aS'imes[0,1]$.'
p11
aS'[1]:'
p12
aS'https://en.wikipedia.org/wiki/cartesian_product'
p13
aS'negative'
p14
tp15
.((lp0
S'i'
p1
aS'hope'
p2
aS'this'
p3
aS'post'
p4
aS'saves'
p5
aS'some'
p6
aS'of'
p7
aS'you'
p8
aS'from'
p9
aS'making'
p10
aS'the'
p11
aS'same'
p12
aS'(stupid)'
p13
aS'mistake'
p14
aS'as'
p15
aS'me.'
p16
aS'if'
p17
aS'you'
p18
aS'have'
p19
aS'an'
p20
aS'older'
p21
aS'version'
p22
aS'of'
p23
aS'matlab'
p24
aS'you'
p25
aS'need'
p26
aS'to'
p27
aS'use'
p28
aS"rand('state',5)"
p29
aS'to'
p30
aS'generate'
p31
aS'the'
p32
aS'correct'
p33
aS'pbar'
p34
aS'and'
p35
aS"**randn**('state',5)"
p36
aS'for'
p37
aS's!'
p38
aS'unfortunately'
p39
aS'i'
p40
aS'found'
p41
aS'out'
p42
aS'only'
p43
aS'after'
p44
aS'getting'
p45
aS'it'
p46
aS'wrong'
p47
aS'twice'
p48
aS':('
p49
aS'better'
p50
aS'luck'
p51
aS'to'
p52
aS'you!'
p53
aS'negative'
p54
tp55
.((lp0
S'no,'
p1
aS"i'm"
p2
aS'not'
p3
aS'a'
p4
aS'ta'
p5
aS'for'
p6
aS'this'
p7
aS'class.'
p8
aS'my'
p9
aS'original'
p10
aS'background'
p11
aS'is'
p12
aS'in'
p13
aS'computer'
p14
aS'science'
p15
aS'and'
p16
aS'math.'
p17
aS'two'
p18
aS'years'
p19
aS'ago'
p20
aS"i've"
p21
aS'finished'
p22
aS'an'
p23
aS'apprenticeship'
p24
aS'in'
p25
aS'software'
p26
aS'engineering'
p27
aS'in'
p28
aS'germany.'
p29
aS"i've"
p30
aS'studied'
p31
aS'some'
p32
aS'math'
p33
aS'as'
p34
aS'an'
p35
aS'auditing'
p36
aS'student'
p37
aS'when'
p38
aS'i'
p39
aS'was'
p40
aS'in'
p41
aS'highschool'
p42
aS'and'
p43
aS'during'
p44
aS'my'
p45
aS'apprenticeship,'
p46
aS'too.'
p47
aS'but'
p48
aS"i've"
p49
aS'never'
p50
aS'formally'
p51
aS'studied'
p52
aS'at'
p53
aS'a'
p54
aS'university'
p55
aS'because'
p56
aS'i'
p57
aS"don't"
p58
aS'have'
p59
aS'my'
p60
aS'a-levels'
p61
aS'yet.'
p62
aS'my'
p63
aS'current'
p64
aS'plan'
p65
aS'is'
p66
aS'to'
p67
aS'start'
p68
aS'my'
p69
aS'a-levels'
p70
aS'via'
p71
aS'evening'
p72
aS'school'
p73
aS'this'
p74
aS'summer.'
p75
aS'though'
p76
aS'i'
p77
aS"don't"
p78
aS'really'
p79
aS'like'
p80
aS'this'
p81
aS'plan'
p82
aS'because'
p83
aS"it's"
p84
aS'3'
p85
aS'more'
p86
aS'years'
p87
aS'to'
p88
aS'go'
p89
aS'until'
p90
aS'i'
p91
aS'can'
p92
aS'finally'
p93
aS'go'
p94
aS'to'
p95
aS'university...'
p96
aS':-('
p97
aS'i'
p98
aS'agree,'
p99
aS'this'
p100
aS"isn't"
p101
aS'the'
p102
aS'typical'
p103
aS'engineering'
p104
aS'course'
p105
aS'even'
p106
aS'though'
p107
aS'it'
p108
aS'runs'
p109
aS'under'
p110
aS'the'
p111
aS'name'
p112
aS'"ee364a".'
p113
aS"it's"
p114
aS'very'
p115
aS'mathy.'
p116
aS"i'd"
p117
aS'consider'
p118
aS'it'
p119
aS'more'
p120
aS'an'
p121
aS'applied'
p122
aS'math'
p123
aS'course.'
p124
aS'i'
p125
aS'take'
p126
aS'functional'
p127
aS'analysis'
p128
aS'on'
p129
aS'coursera'
p130
aS'parallel'
p131
aS'to'
p132
aS'this'
p133
aS'and'
p134
aS"it's"
p135
aS'a'
p136
aS'huge'
p137
aS'help,'
p138
aS'there'
p139
aS'is'
p140
aS'a'
p141
aS'lot'
p142
aS'of'
p143
aS'transfer'
p144
aS'knowledge.'
p145
aS'i'
p146
aS"haven't"
p147
aS'studied'
p148
aS'convex'
p149
aS'analysis/optimization'
p150
aS'much'
p151
aS'before...'
p152
aS'but'
p153
aS'studying'
p154
aS'it'
p155
aS'parallel'
p156
aS'to'
p157
aS'functional'
p158
aS'analysis'
p159
aS'is'
p160
aS'just'
p161
aS'fun.'
p162
aS'i'
p163
aS'encounter'
p164
aS'questions'
p165
aS'that'
p166
aS'could'
p167
aS'have'
p168
aS'been'
p169
aS'asked'
p170
aS'in'
p171
aS'either'
p172
aS'class.'
p173
aS'negative'
p174
tp175
.((lp0
S'michele,'
p1
aS'please'
p2
aS'correct'
p3
aS'me'
p4
aS'if'
p5
aS"i've"
p6
aS'misunderstood'
p7
aS'you,'
p8
aS'but'
p9
aS"i'm"
p10
aS'not'
p11
aS'sure'
p12
aS'about'
p13
aS'that'
p14
aS'interpretation'
p15
aS'of'
p16
aS'a'
p17
aS'norm.'
p18
aS'since'
p19
aS'for'
p20
aS'norms'
p21
aS'other'
p22
aS'than'
p23
aS'$ell_2$'
p24
aS'balls'
p25
aS'are'
p26
aS'not'
p27
aS'round,'
p28
aS"i'm"
p29
aS'assuming'
p30
aS'you'
p31
aS'mean'
p32
aS'"norm'
p33
aS'ball",'
p34
aS'but'
p35
aS'since'
p36
aS'a'
p37
aS'norm'
p38
aS'ball'
p39
aS'with'
p40
aS'centre'
p41
aS'at'
p42
aS'$0$'
p43
aS'is'
p44
aS'defined'
p45
aS'as'
p46
aS'${p'
p47
aS'mid'
p48
aS'|p'
p49
aS'|'
p50
aS'le'
p51
aS'r}$,'
p52
aS'the'
p53
aS'smallest'
p54
aS'that'
p55
aS'contains'
p56
aS'$x$'
p57
aS'is'
p58
aS'simply'
p59
aS'the'
p60
aS'one'
p61
aS'with'
p62
aS'$r'
p63
aS'='
p64
aS'|x|$,'
p65
aS'so'
p66
aS'your'
p67
aS'interpretation'
p68
aS'is'
p69
aS'circular.'
p70
aS'what'
p71
aS"i've"
p72
aS'gleaned'
p73
aS'from'
p74
aS'the'
p75
aS'definition'
p76
aS'of'
p77
aS'norms'
p78
aS'is'
p79
aS'that'
p80
aS'their'
p81
aS'level'
p82
aS'sets'
p83
aS'(when'
p84
aS'graphed)'
p85
aS'are'
p86
aS'concentric,'
p87
aS'convex,'
p88
aS'similar'
p89
aS'figures'
p90
aS'that'
p91
aS'are'
p92
aS'symmetric'
p93
aS'about'
p94
aS'the'
p95
aS'origin.'
p96
aS'tcubed,'
p97
aS'sketch'
p98
aS'one'
p99
aS'level'
p100
aS'curve'
p101
aS'of'
p102
aS'the'
p103
aS'$ell_infty$'
p104
aS'norm'
p105
aS'in'
p106
aS'two'
p107
aS'dimensions:'
p108
aS'it'
p109
aS'is'
p110
aS'a'
p111
aS'square.'
p112
aS'sketch'
p113
aS'one'
p114
aS'level'
p115
aS'curve'
p116
aS'of'
p117
aS'the'
p118
aS'$min$'
p119
aS'function:'
p120
aS'it'
p121
aS'is'
p122
aS'not'
p123
aS'even'
p124
aS'a'
p125
aS'closed'
p126
aS'curve.'
p127
aS'the'
p128
aS'$ell_1$'
p129
aS'norm'
p130
aS'also'
p131
aS'has'
p132
aS'squares'
p133
aS'as'
p134
aS'level'
p135
aS'curves,'
p136
aS'and'
p137
aS'$ell_p$'
p138
aS'with'
p139
aS'$p'
p140
aS'in'
p141
aS'(1,'
p142
aS'infty)$'
p143
aS'looks'
p144
aS'like'
p145
aS'something'
p146
aS'in'
p147
aS'between'
p148
aS'those'
p149
aS'two'
p150
aS'squares.'
p151
aS'so'
p152
aS'i'
p153
aS'think'
p154
aS'the'
p155
aS'only'
p156
aS'reason'
p157
aS'$max(|x_1|,ldots)$'
p158
aS'is'
p159
aS'a'
p160
aS'norm'
p161
aS'is'
p162
aS'that'
p163
aS"it's"
p164
aS'the'
p165
aS'limit'
p166
aS'of'
p167
aS'$left(sum_i'
p168
aS'x_i^p'
p169
aS'ight)^{1/p}$'
p170
aS'as'
p171
aS'$p'
p172
aS'ightarrow'
p173
aS'infty$.'
p174
aS'it'
p175
aS'was'
p176
aS'an'
p177
aS'interesting'
p178
aS'idea'
p179
aS'you'
p180
aS'had,'
p181
aS'but'
p182
aS"i'm"
p183
aS'not'
p184
aS'sure'
p185
aS'if'
p186
aS"there's"
p187
aS'any'
p188
aS'way'
p189
aS'to'
p190
aS'salvage'
p191
aS'it.'
p192
aS':('
p193
aS'negative'
p194
tp195
.((lp0
S'same'
p1
aS'here.'
p2
aS'just'
p3
aS'ran'
p4
aS'the'
p5
aS'matlab'
p6
aS'file'
p7
aS'i'
p8
aS'used'
p9
aS'initially.'
p10
aS':('
p11
aS'negative'
p12
tp13
.((lp0
S'sure,'
p1
aS'i'
p2
aS"don't"
p3
aS'claim'
p4
aS'prizes'
p5
aS'for'
p6
aS'well-commented'
p7
aS'code,'
p8
aS'but'
p9
aS"here's"
p10
aS'a'
p11
aS'script'
p12
aS'that'
p13
aS'gave'
p14
aS'points.'
p15
aS'(edit:'
p16
aS'sorry,'
p17
aS'copied'
p18
aS'wrong'
p19
aS'assignment'
p20
aS'code'
p21
aS';)'
p22
aS'clear'
p23
aS'all'
p24
aS'clc'
p25
aS'm'
p26
aS'='
p27
aS'200;'
p28
aS'%outcomes'
p29
aS'n'
p30
aS'='
p31
aS'4;'
p32
aS'%'
p33
aS'existing'
p34
aS'options'
p35
aS'r'
p36
aS'='
p37
aS'1.05;'
p38
aS'%'
p39
aS'return'
p40
aS'on'
p41
aS'safe'
p42
aS'option'
p43
aS'f=0.9;'
p44
aS'%'
p45
aS'floor'
p46
aS'f'
p47
aS'and'
p48
aS'ceiling'
p49
aS'c'
p50
aS'on'
p51
aS'collar'
p52
aS'c=1.15;'
p53
aS'%'
p54
aS'prices'
p55
aS'for'
p56
aS'safe,'
p57
aS'underlying'
p58
aS'and'
p59
aS'then'
p60
aS'existing'
p61
aS'options'
p62
aS'p'
p63
aS'='
p64
aS'[1,'
p65
aS'1,'
p66
aS'0.06,'
p67
aS'0.03,'
p68
aS'.02,'
p69
aS".01]';"
p70
aS'k'
p71
aS'='
p72
aS'[1.1,'
p73
aS'1.2,'
p74
aS'.8,'
p75
aS'.7];'
p76
aS'%'
p77
aS'existing'
p78
aS'strike'
p79
aS'prices'
p80
aS's'
p81
aS'='
p82
aS'linspace(1/2,'
p83
aS'2,'
p84
aS'm);'
p85
aS'%possible'
p86
aS'outcomes'
p87
aS'v'
p88
aS'='
p89
aS'zeros(m,'
p90
aS'n+2+1);'
p91
aS'for'
p92
aS'k=1:m'
p93
aS'v(k,'
p94
aS'1)'
p95
aS'='
p96
aS'r;'
p97
aS'%'
p98
aS'safe'
p99
aS'option'
p100
aS'v(k,'
p101
aS'2)'
p102
aS'='
p103
aS's(k);'
p104
aS'%'
p105
aS'underlying'
p106
aS'asset'
p107
aS'for'
p108
aS'l=1:n'
p109
aS'%'
p110
aS'existing'
p111
aS'options'
p112
aS'if'
p113
aS'k(l)>1'
p114
aS'%'
p115
aS'call'
p116
aS'v(k,'
p117
aS'2+l)'
p118
aS'='
p119
aS'max([0,'
p120
aS's(k)-k(l)]);'
p121
aS'else'
p122
aS'%put'
p123
aS'v(k,'
p124
aS'2+l)'
p125
aS'='
p126
aS'max([0,'
p127
aS'k(l)-s(k)]);'
p128
aS'end'
p129
aS'end'
p130
aS'v(k,'
p131
aS'2+n+1)'
p132
aS'='
p133
aS'min([max([s(k),'
p134
aS'f]),'
p135
aS'c])-1;'
p136
aS'%'
p137
aS'collar'
p138
aS'end'
p139
aS'vt'
p140
aS'='
p141
aS"v';"
p142
aS'vt1=vt(1:(end-1),:);'
p143
aS'%'
p144
aS'split'
p145
aS'v'
p146
aS'into'
p147
aS'known'
p148
aS'part'
p149
aS'and'
p150
aS'collar'
p151
aS'part'
p152
aS'size(vt1)'
p153
aS'vtlast=vt(end,:);'
p154
aS'size(vtlast)'
p155
aS'cvx_begin'
p156
aS'variable'
p157
aS'collarp'
p158
aS'variable'
p159
aS'y(m)'
p160
aS'minimize'
p161
aS'collarp'
p162
aS'subject'
p163
aS'to'
p164
aS'vt1'
p165
aS'*'
p166
aS'y'
p167
aS'=='
p168
aS'p'
p169
aS'vtlast*y'
p170
aS'=='
p171
aS'collarp'
p172
aS'y'
p173
aS'>='
p174
aS'0'
p175
aS'cvx_end'
p176
aS'minprice'
p177
aS'='
p178
aS'cvx_optval'
p179
aS'cvx_begin'
p180
aS'quiet'
p181
aS'variable'
p182
aS'collarp'
p183
aS'variable'
p184
aS'y(m)'
p185
aS'maximize'
p186
aS'collarp'
p187
aS'subject'
p188
aS'to'
p189
aS'vt1'
p190
aS'*'
p191
aS'y'
p192
aS'=='
p193
aS'p'
p194
aS'vtlast*y'
p195
aS'=='
p196
aS'collarp'
p197
aS'y'
p198
aS'>='
p199
aS'0'
p200
aS'cvx_end'
p201
aS'maxprice'
p202
aS'='
p203
aS'cvx_optval'
p204
aS'range'
p205
aS'='
p206
aS'[minprice,'
p207
aS'maxprice]'
p208
aS'negative'
p209
tp210
.((lp0
S'below'
p1
aS'gives'
p2
aS'the'
p3
aS'upper'
p4
aS'bound.'
p5
aS'replace'
p6
aS'maximize'
p7
aS'with'
p8
aS'minimize'
p9
aS'to'
p10
aS'get'
p11
aS'the'
p12
aS'lower'
p13
aS'bound.'
p14
aS'n'
p15
aS'='
p16
aS'200;'
p17
aS's'
p18
aS'='
p19
aS'linspace(0.5,2,n);'
p20
aS's'
p21
aS'='
p22
aS"s.';"
p23
aS'%'
p24
aS'stock'
p25
aS'price'
p26
aS'%'
p27
aS'200-by-1'
p28
aS's0'
p29
aS'='
p30
aS'1;'
p31
aS'%'
p32
aS'price'
p33
aS'of'
p34
aS'underlying'
p35
aS'stock'
p36
aS'r'
p37
aS'='
p38
aS'1;'
p39
aS'%'
p40
aS'price'
p41
aS'of'
p42
aS'risk'
p43
aS'free'
p44
aS'asset'
p45
aS'f'
p46
aS'='
p47
aS'0.9;'
p48
aS'c'
p49
aS'='
p50
aS'1.15;'
p51
aS'%'
p52
aS'set'
p53
aS'up'
p54
aS'the'
p55
aS'v'
p56
aS'matrix'
p57
aS'for'
p58
aS'known'
p59
aS'asset'
p60
aS'prices'
p61
aS'%'
p62
aS'[risk-free,'
p63
aS'stock,'
p64
aS'call-1,call-2,put1-,put-2]'
p65
aS'v1'
p66
aS'=[1.05*ones(n,1),'
p67
aS's,'
p68
aS'max(0,s-1.1),max(0,s-1.2),max(0,0.8-s),max(0,0.7-s)];'
p69
aS'%'
p70
aS'prices'
p71
aS'of'
p72
aS'known'
p73
aS'assets'
p74
aS'p1'
p75
aS'='
p76
aS'[1;s0;0.06;0.03;0.02;0.01];'
p77
aS'%'
p78
aS'we'
p79
aS'have'
p80
aS'the'
p81
aS'equality:'
p82
aS'v1^t*'
p83
aS'y'
p84
aS'='
p85
aS'p1'
p86
aS','
p87
aS'y>=0'
p88
aS'%'
p89
aS'unknown'
p90
aS'collar'
p91
aS'collar'
p92
aS'='
p93
aS'(c-s0)*(s'
p94
aS'>'
p95
aS'c)'
p96
aS'+'
p97
aS'(s-s0).*(s'
p98
aS'<='
p99
aS'c).*(s'
p100
aS'>='
p101
aS'f)'
p102
aS'+'
p103
aS'(f-s0)*(s'
p104
aS'<='
p105
aS'f);'
p106
aS'cvx_begin'
p107
aS'variables'
p108
aS'y(n)'
p109
aS'pc'
p110
aS'maximize'
p111
aS'pc'
p112
aS'subject'
p113
aS'to'
p114
aS"v1'*y"
p115
aS'=='
p116
aS'p1'
p117
aS"collar'*y"
p118
aS'=='
p119
aS'pc'
p120
aS'y'
p121
aS'>='
p122
aS'0'
p123
aS'cvx_end'
p124
aS'negative'
p125
tp126
.((lp0
S'i'
p1
aS'hope'
p2
aS'someone'
p3
aS'from'
p4
aS'the'
p5
aS'course'
p6
aS'staff'
p7
aS'or'
p8
aS'knowledgable'
p9
aS'in'
p10
aS'statistics'
p11
aS'comments'
p12
aS'on'
p13
aS'this'
p14
aS'question!'
p15
aS'@lolwut12<zipredac>'
p16
aS'thanks'
p17
aS'very'
p18
aS'much'
p19
aS'for'
p20
aS'the'
p21
aS'question'
p22
aS'-'
p23
aS"i'm"
p24
aS'not'
p25
aS'alone'
p26
aS'in'
p27
aS'not'
p28
aS'understanding'
p29
aS'the'
p30
aS'equivalence'
p31
aS'of'
p32
aS'the'
p33
aS'2'
p34
aS'problems.'
p35
aS'this'
p36
aS'point'
p37
aS'is'
p38
aS'almost'
p39
aS'always'
p40
aS'glossed'
p41
aS'over'
p42
aS'in'
p43
aS'statistics'
p44
aS'papers'
p45
aS':(.'
p46
aS'@joncohen'
p47
aS'i'
p48
aS'think'
p49
aS'your'
p50
aS'intuition,'
p51
aS'informed'
p52
aS'by'
p53
aS'practice,'
p54
aS'is'
p55
aS'in'
p56
aS'the'
p57
aS'right'
p58
aS'direction.'
p59
aS'see'
p60
aS'this'
p61
aS'math.stackexchange'
p62
aS'question'
p63
aS'and'
p64
aS'response:'
p65
aS'http://math.stackexchange.com/questions/<zipredac><zipredac>5<zipredac>06/why-are-additional-constraint-and-penalty-term-equivalent-in-ridge-regression'
p66
aS'intuitively'
p67
aS'it'
p68
aS'seems'
p69
aS'to'
p70
aS'me,'
p71
aS'that'
p72
aS'since'
p73
aS'the'
p74
aS'penalty'
p75
aS'form'
p76
aS'of'
p77
aS'regularized'
p78
aS'regression'
p79
aS"('ridge"
p80
aS"regression'"
p81
aS'if'
p82
aS'the'
p83
aS'norms'
p84
aS'are'
p85
aS'euclidean)'
p86
aS'always'
p87
aS'have'
p88
aS'a'
p89
aS'unique'
p90
aS'solution'
p91
aS'(call'
p92
aS'it'
p93
aS'$x^*$),'
p94
aS'we'
p95
aS'are'
p96
aS'guaranteed'
p97
aS'to'
p98
aS'have'
p99
aS'$||x^*||_2'
p100
aS'le'
p101
aS't$'
p102
aS'(where'
p103
aS't'
p104
aS'>'
p105
aS'0'
p106
aS'is'
p107
aS'uniquely'
p108
aS'determined'
p109
aS'by'
p110
aS'the'
p111
aS'penalty'
p112
aS'$lambda$).'
p113
aS'it'
p114
aS'may'
p115
aS'even'
p116
aS'be'
p117
aS'possible'
p118
aS'to'
p119
aS'write'
p120
aS'expressions'
p121
aS'for'
p122
aS'the'
p123
aS'relation'
p124
aS'between'
p125
aS'$lambda$'
p126
aS'and'
p127
aS'$inf_lambda'
p128
aS't$.'
p129
aS'for'
p130
aS'ridge'
p131
aS'regression'
p132
aS"it's"
p133
aS'certainly'
p134
aS'doable.'
p135
aS'negative'
p136
tp137
.((lp0
S'hi,'
p1
aS'this'
p2
aS'course'
p3
aS'is'
p4
aS'awesome.'
p5
aS'it'
p6
aS'gives'
p7
aS'insights'
p8
aS'to'
p9
aS'applications,'
p10
aS'i'
p11
aS'never'
p12
aS'looked'
p13
aS'at'
p14
aS'that'
p15
aS'way.'
p16
aS'nevertheless,'
p17
aS'i'
p18
aS'could'
p19
aS'not'
p20
aS'get'
p21
aS'the'
p22
aS'topic'
p23
aS'"experiment'
p24
aS'design"'
p25
aS'quite'
p26
aS'well.'
p27
aS'1.'
p28
aS'how'
p29
aS'did'
p30
aS'we'
p31
aS'get'
p32
aS'the'
p33
aS'covariance'
p34
aS'matrix'
p35
aS'$e=(sum_{i=1}^{m}a_ia_i^t)^{-1}$?'
p36
aS'2.'
p37
aS'i'
p38
aS'cant'
p39
aS'understand'
p40
aS'the'
p41
aS'interpretation'
p42
aS'described'
p43
aS'with'
p44
aS'respect'
p45
aS'to'
p46
aS'the'
p47
aS'ellipsoid'
p48
aS':"**optimal'
p49
aS'experiment'
p50
aS'uses'
p51
aS'vectors'
p52
aS'vk'
p53
aS'on'
p54
aS'boundary'
p55
aS'of'
p56
aS'ellipsoid'
p57
aS'defined'
p58
aS'by'
p59
aS'w**"'
p60
aS'and'
p61
aS'how'
p62
aS'is'
p63
aS'that'
p64
aS'shown'
p65
aS'in'
p66
aS'the'
p67
aS'figure'
p68
aS'below?'
p69
aS'![list'
p70
aS'item][1]'
p71
aS'thanks'
p72
aS'!'
p73
aS'[1]:'
p74
aS'https://edx-west-uploads.s3.amazonaws.com/1<phoneredac><phoneredac>73.png'
p75
aS'negative'
p76
tp77
.((lp0
S'just'
p1
aS'a'
p2
aS'few'
p3
aS'days'
p4
aS'back'
p5
aS'i'
p6
aS'answered'
p7
aS'a'
p8
aS'question'
p9
aS'on'
p10
aS'concavity'
p11
aS'of'
p12
aS'log'
p13
aS'likelihood'
p14
aS'of'
p15
aS'generalized'
p16
aS'linear'
p17
aS'models(glm).'
p18
aS'thought'
p19
aS'i'
p20
aS'should'
p21
aS'share'
p22
aS'it,'
p23
aS'if'
p24
aS'someone'
p25
aS'would'
p26
aS'like'
p27
aS'it.'
p28
aS'so'
p29
aS'here'
p30
aS'it'
p31
aS'goes.'
p32
aS'the'
p33
aS'definition'
p34
aS'of'
p35
aS'exponential'
p36
aS'family'
p37
aS'is:'
p38
aS'$'
p39
aS'p(x|'
p40
aS'heta)'
p41
aS'='
p42
aS'h(x)exp('
p43
aS'heta^tphi(x)'
p44
aS'-'
p45
aS'a('
p46
aS'heta))$'
p47
aS'where'
p48
aS'$'
p49
aS'a('
p50
aS'heta)$'
p51
aS'is'
p52
aS'the'
p53
aS'log'
p54
aS'partition'
p55
aS'function.'
p56
aS'now'
p57
aS'one'
p58
aS'can'
p59
aS'prove'
p60
aS'that'
p61
aS'three'
p62
aS'things'
p63
aS'for'
p64
aS'1d'
p65
aS'case'
p66
aS'and'
p67
aS'it'
p68
aS'actually'
p69
aS'generalizes'
p70
aS'to'
p71
aS'higher'
p72
aS'dimensions:(you'
p73
aS'can'
p74
aS'lookup'
p75
aS'into'
p76
aS'properties'
p77
aS'of'
p78
aS'exponential'
p79
aS'families'
p80
aS'or'
p81
aS'log'
p82
aS'partition)'
p83
aS'1.'
p84
aS'$'
p85
aS'frac{da}{d'
p86
aS'heta}'
p87
aS'='
p88
aS'mathbb{e}[phi(x)]$'
p89
aS'2.'
p90
aS'$'
p91
aS'frac{d^2a}{d'
p92
aS'heta^2}'
p93
aS'='
p94
aS'mathbb{e}[phi^2(x)]'
p95
aS'-mathbb{e}[phi(x)]^2'
p96
aS'='
p97
aS'var(phi(x))'
p98
aS'$'
p99
aS'3.'
p100
aS'$'
p101
aS'frac{'
p102
aS'partial'
p103
aS'^2a}{partial'
p104
aS'heta_ipartial'
p105
aS'heta_j}'
p106
aS'='
p107
aS'mathbb{e}[phi_i(x)phi_j(x)]'
p108
aS'-mathbb{e}[phi_i(x)]'
p109
aS'mathbb{e}[phi_j(x)]'
p110
aS'='
p111
aS'cov(phi(x))'
p112
aS'rightarrow'
p113
aS'delta^2a('
p114
aS'heta)'
p115
aS'='
p116
aS'cov(phi(x))$'
p117
aS'the'
p118
aS'above'
p119
aS'result'
p120
aS'prove'
p121
aS'that'
p122
aS'$a('
p123
aS'heta)$'
p124
aS'is'
p125
aS'convex(as'
p126
aS'$cov(phi(x))$'
p127
aS'is'
p128
aS'positive'
p129
aS'semidefinite).'
p130
aS'now'
p131
aS'we'
p132
aS'take'
p133
aS'a'
p134
aS'look'
p135
aS'at'
p136
aS'likelihood'
p137
aS'function'
p138
aS'for'
p139
aS'mle:'
p140
aS'$p(mathcal{d}|'
p141
aS'heta)'
p142
aS'='
p143
aS'[prod_{i=1}^{n}{h(x_i)}]exp('
p144
aS'heta^t[sum_{i=1}^{n}phi(x_i)]'
p145
aS'-'
p146
aS'na('
p147
aS'heta))$'
p148
aS'$'
p149
aS'log'
p150
aS'(p(mathcal{d}|'
p151
aS'heta))'
p152
aS'='
p153
aS'heta^t[sum_{i=1}^{n}phi(x_i)]'
p154
aS'-'
p155
aS'na('
p156
aS'heta))'
p157
aS'='
p158
aS'heta^t[phi(mathcal{d})]'
p159
aS'-'
p160
aS'na('
p161
aS'heta))$'
p162
aS'now'
p163
aS'$'
p164
aS'heta^t[phi(mathcal{d})]$'
p165
aS'is'
p166
aS'linear'
p167
aS'in'
p168
aS'theta'
p169
aS'and'
p170
aS'$-a('
p171
aS'heta)$'
p172
aS'is'
p173
aS'concave.'
p174
aS'therefore,'
p175
aS'a'
p176
aS'global'
p177
aS'maximum(or'
p178
aS'atleast'
p179
aS'whatever'
p180
aS'we'
p181
aS'get,'
p182
aS'we'
p183
aS'cannot'
p184
aS'do'
p185
aS'better'
p186
aS'than'
p187
aS'that).'
p188
aS'ref:'
p189
aS'http://stats.stackexchange.com/questions/<zipredac>7615/does-log-likelihood-in-glm-have-guaranteed-convergence-to-global-maxima/<zipredac>7<zipredac><zipredac>4#<zipredac>7<zipredac><zipredac>4'
p190
aS'negative'
p191
tp192
.((lp0
S'check'
p1
aS'your'
p2
aS'code'
p3
aS'with'
p4
aS'the'
p5
aS'following'
p6
aS'case.'
p7
aS'a'
p8
aS'='
p9
aS'[0'
p10
aS'1;'
p11
aS'0'
p12
aS'-1;1'
p13
aS'0;'
p14
aS'-1'
p15
aS'0;-1'
p16
aS'1];'
p17
aS'm'
p18
aS'='
p19
aS'5;'
p20
aS'n'
p21
aS'='
p22
aS'2;'
p23
aS'b'
p24
aS'='
p25
aS'[1'
p26
aS'1'
p27
aS'1'
p28
aS'1'
p29
aS'0];'
p30
aS'the'
p31
aS'hyperspace'
p32
aS'above'
p33
aS'is'
p34
aS'just'
p35
aS'the'
p36
aS'intersection'
p37
aS'of'
p38
aS'the'
p39
aS'rectangle'
p40
aS'$[-1,'
p41
aS'1]'
p42
aS'imes'
p43
aS'[-1,'
p44
aS'1]$'
p45
aS'with'
p46
aS'$y-xleq'
p47
aS'0$,'
p48
aS'so'
p49
aS'you'
p50
aS'should'
p51
aS'be'
p52
aS'getting'
p53
aS'1'
p54
aS'as'
p55
aS'an'
p56
aS'answer,'
p57
aS'with'
p58
aS'$l'
p59
aS'='
p60
aS'[0,-1]$'
p61
aS'and'
p62
aS'$u=[1,0]$.'
p63
aS'(check'
p64
aS'me'
p65
aS'-'
p66
aS'i'
p67
aS'might'
p68
aS'be'
p69
aS'incorrect.)'
p70
aS'my'
p71
aS'solver'
p72
aS'does'
p73
aS'handle'
p74
aS'this'
p75
aS'case'
p76
aS'correctly.'
p77
aS'but'
p78
aS'for'
p79
aS'the'
p80
aS'original'
p81
aS'question,'
p82
aS"i'm"
p83
aS'still'
p84
aS'getting'
p85
aS'a'
p86
aS'really'
p87
aS'large'
p88
aS'value.'
p89
aS'negative'
p90
tp91
.((lp0
S'i'
p1
aS"don't"
p2
aS'see'
p3
aS'why'
p4
aS'this'
p5
aS'should'
p6
aS'not'
p7
aS'work:'
p8
aS'cvx_begin'
p9
aS'variable'
p10
aS'x(n);'
p11
aS'minimize(...)'
p12
aS'subject'
p13
aS'to'
p14
aS'x'
p15
aS'>='
p16
aS'0;'
p17
aS'x(1:(n-1))'
p18
aS'<='
p19
aS'x(2:n);'
p20
aS'cvx_end'
p21
aS'negative'
p22
tp23
.((lp0
S'the'
p1
aS'way'
p2
aS'i'
p3
aS'solved'
p4
aS'this'
p5
aS'problem'
p6
aS'in'
p7
aS'hw6,'
p8
aS'problem'
p9
aS'1'
p10
aS'is'
p11
aS'by'
p12
aS'defining'
p13
aS'a'
p14
aS'cvx'
p15
aS'expression'
p16
aS'inside'
p17
aS'the'
p18
aS'`cvx_begin`'
p19
aS'...'
p20
aS'`cvx_end`'
p21
aS'delimiters:'
p22
aS'cvx_begin'
p23
aS'variable'
p24
aS'x(n);'
p25
aS'expression'
p26
aS't(n+k-1);'
p27
aS't=conv(x,h);'
p28
aS'minimize(norm(y'
p29
aS'-'
p30
aS't(1:n)))'
p31
aS'subject'
p32
aS'to'
p33
aS'x'
p34
aS'>='
p35
aS'0;'
p36
aS'x(1:(n-1))'
p37
aS'<='
p38
aS'x(2:n);'
p39
aS'cvx_end'
p40
aS'negative'
p41
tp42
.((lp0
S'n'
p1
aS'='
p2
aS'100;'
p3
aS'%'
p4
aS'create'
p5
aS'the'
p6
aS'matrix'
p7
aS'for'
p8
aS'inequality'
p9
aS'b'
p10
aS'='
p11
aS'-eye(n-1);'
p12
aS'c'
p13
aS'='
p14
aS'zeros(n,n);'
p15
aS'c(2:n,1:(n-1))'
p16
aS'='
p17
aS'b;'
p18
aS'a'
p19
aS'='
p20
aS'eye(n)'
p21
aS'+'
p22
aS'c;'
p23
aS'%'
p24
aS'now'
p25
aS'a*x'
p26
aS'>=0'
p27
aS'gives'
p28
aS'us'
p29
aS'0'
p30
aS'<='
p31
aS'x(1)'
p32
aS'<='
p33
aS'x(2)'
p34
aS'<='
p35
aS'...'
p36
aS'<='
p37
aS'x(n)'
p38
aS'negative'
p39
tp40
.((lp0
S'##'
p1
aS'first'
p2
aS'question'
p3
aS'let'
p4
aS'$a$'
p5
aS'be'
p6
aS'$:m'
p7
aS'imes'
p8
aS'n$'
p9
aS'matrix'
p10
aS'of'
p11
aS'rows'
p12
aS'$a_i$'
p13
aS'for'
p14
aS'simplicity.'
p15
aS'so,'
p16
aS'as'
p17
aS'a'
p18
aS'least-squares'
p19
aS'estimate,'
p20
aS'we'
p21
aS'get'
p22
aS'$;hat'
p23
aS'x=(a^ta)^{-1}a^ty$.'
p24
aS'then'
p25
aS'we'
p26
aS'can'
p27
aS'express'
p28
aS'$e=hat'
p29
aS'x-x$:'
p30
aS'$e'
p31
aS'='
p32
aS'hat'
p33
aS'x-x'
p34
aS'='
p35
aS'(a^ta)^{-1}a^ty-x'
p36
aS'='
p37
aS'(a^ta)^{-1}a^t(ax+w)-x'
p38
aS'=\\'
p39
aS'='
p40
aS'(a^ta)^{-1}a^tax+(a^ta)^{-1}a^tw-x'
p41
aS'='
p42
aS'(a^ta)^{-1}a^tw$'
p43
aS'$mathbb'
p44
aS'ee=(a^ta)^{-1}a^tmathbb'
p45
aS'ew=0:$'
p46
aS'and'
p47
aS'therefore'
p48
aS'the'
p49
aS'covariance'
p50
aS'matrix'
p51
aS'$;e=mathrm{var}(e):$'
p52
aS'is'
p53
aS'basically'
p54
aS'$;mathbb'
p55
aS'e[ee^t]$.'
p56
aS'$e'
p57
aS'='
p58
aS'mathbb'
p59
aS'e[ee^t]'
p60
aS'='
p61
aS'mathbb'
p62
aS'e[(a^ta)^{-1}a^tww^ta(a^ta)^{-1}]'
p63
aS'=\\'
p64
aS'='
p65
aS'(a^ta)^{-1}a^tcdotmathbb'
p66
aS'e[ww^t]cdot'
p67
aS'a(a^ta)^{-1}'
p68
aS'='
p69
aS'(a^ta)^{-1}$'
p70
aS'notes:'
p71
aS'1.'
p72
aS'$a^ta;$'
p73
aS'is'
p74
aS'symmetric'
p75
aS'and'
p76
aS'hence'
p77
aS'$;(a^ta)^{-1};$'
p78
aS'is'
p79
aS'symmetric.'
p80
aS'2.'
p81
aS'$mathbb'
p82
aS'e[ww^t]=i;$'
p83
aS'since'
p84
aS'it'
p85
aS'is'
p86
aS'$;mathrm{var}(w);$'
p87
aS'and'
p88
aS'all'
p89
aS'the'
p90
aS'measurement'
p91
aS'errors'
p92
aS'$w_i$'
p93
aS'are'
p94
aS'iids'
p95
aS'and'
p96
aS'standard-normal'
p97
aS'(this'
p98
aS'is'
p99
aS'the'
p100
aS'initial'
p101
aS'assumption).'
p102
aS'3.'
p103
aS'well,'
p104
aS'$a^ta=sumlimits_{i=1}^m(a_ia_i^t)$.'
p105
aS'you'
p106
aS'can'
p107
aS'check'
p108
aS'it'
p109
aS'zillions'
p110
aS'of'
p111
aS'ways.'
p112
aS'##'
p113
aS'second'
p114
aS'question'
p115
aS'comlementary'
p116
aS'slackness'
p117
aS'condition'
p118
aS'for'
p119
aS'the'
p120
aS'dual'
p121
aS'of'
p122
aS'the'
p123
aS'd-optimal'
p124
aS'design'
p125
aS'problem'
p126
aS'(slide'
p127
aS'7-13'
p128
aS'of'
p129
aS'the'
p130
aS'lecture)'
p131
aS'shows'
p132
aS'that'
p133
aS'$:lambda_k(1-v_k^twv_k)=0$.'
p134
aS'it'
p135
aS'means'
p136
aS'that'
p137
aS'if'
p138
aS'$lambda_k>0$'
p139
aS'(the'
p140
aS'measurement'
p141
aS'is'
p142
aS'selected)'
p143
aS'then'
p144
aS'$v_k$'
p145
aS'belongs'
p146
aS'to'
p147
aS'a'
p148
aS'boundary'
p149
aS'of'
p150
aS'the'
p151
aS'ellipsoid.'
p152
aS'in'
p153
aS'fact'
p154
aS'if'
p155
aS'$:v_k^twv_k<1:$'
p156
aS'the'
p157
aS'point'
p158
aS'$v_k$'
p159
aS'is'
p160
aS'inside,'
p161
aS'and'
p162
aS'if'
p163
aS'$;v_k^twv_k>1:$'
p164
aS'it'
p165
aS'is'
p166
aS'outside'
p167
aS'the'
p168
aS'ellipsoid.'
p169
aS'for'
p170
aS'example,'
p171
aS'if'
p172
aS'$;w=iinmathbb'
p173
aS'r^{2'
p174
aS'imes2}$,'
p175
aS'then'
p176
aS'the'
p177
aS'boundary'
p178
aS'is'
p179
aS'${(x,y)inmathbb'
p180
aS'r^2,|,x^2+y^2=1}$'
p181
aS'and'
p182
aS'is'
p183
aS'a'
p184
aS'plain'
p185
aS'circle.'
p186
aS'in'
p187
aS'general,'
p188
aS'that'
p189
aS'equation'
p190
aS'for'
p191
aS'a'
p192
aS'positive'
p193
aS'definite'
p194
aS'matrix'
p195
aS'forms'
p196
aS'an'
p197
aS'ellipsoid.'
p198
aS'on'
p199
aS'the'
p200
aS'next'
p201
aS'slide'
p202
aS'you'
p203
aS'see'
p204
aS'the'
p205
aS'picture'
p206
aS'which'
p207
aS'illustrates'
p208
aS'that'
p209
aS'idea.'
p210
aS'dashed'
p211
aS'line'
p212
aS'is'
p213
aS'the'
p214
aS'ellipsoid'
p215
aS'$;v^twv=1$,'
p216
aS'and'
p217
aS'only'
p218
aS'two'
p219
aS'points'
p220
aS'are'
p221
aS'chosen'
p222
aS'with'
p223
aS'lambdas'
p224
aS'0.5,'
p225
aS'and'
p226
aS'those'
p227
aS'are'
p228
aS'exactly'
p229
aS'ones'
p230
aS'that'
p231
aS'lie'
p232
aS'on'
p233
aS'that'
p234
aS"ellipsoid's"
p235
aS'boundary.'
p236
aS'you'
p237
aS'get'
p238
aS'the'
p239
aS'idea.'
p240
aS'another'
p241
aS'question'
p242
aS'you'
p243
aS'could'
p244
aS'ask'
p245
aS'is'
p246
aS'why'
p247
aS'that'
p248
aS'problem'
p249
aS'is'
p250
aS'the'
p251
aS'dual'
p252
aS'of'
p253
aS'the'
p254
aS'original'
p255
aS'one'
p256
aS'of'
p257
aS'd-optimal'
p258
aS'design'
p259
aS'and'
p260
aS'why'
p261
aS'the'
p262
aS'complementary'
p263
aS'slackness'
p264
aS'holds,'
p265
aS'but'
p266
aS"that's"
p267
aS'another'
p268
aS'story.'
p269
aS'i'
p270
aS'hope'
p271
aS'you'
p272
aS'can'
p273
aS'find'
p274
aS'a'
p275
aS'more'
p276
aS'detailed'
p277
aS'explanation'
p278
aS'in'
p279
aS'the'
p280
aS'book.'
p281
aS'negative'
p282
tp283
.((lp0
S'i'
p1
aS'believe'
p2
aS"it's"
p3
aS'before'
p4
aS'10pm,'
p5
aS'march'
p6
aS'2'
p7
aS'(pst)'
p8
aS'now'
p9
aS'but'
p10
aS'it'
p11
aS'looks'
p12
aS'like'
p13
aS'the'
p14
aS'site'
p15
aS'no'
p16
aS'longer'
p17
aS'accepts'
p18
aS'submissions.'
p19
aS':-('
p20
aS'if'
p21
aS'the'
p22
aS'instructor'
p23
aS'meant'
p24
aS'sunday'
p25
aS'midnight,'
p26
aS"shouldn't"
p27
aS'the'
p28
aS'deadline'
p29
aS'be'
p30
aS'0:00,'
p31
aS'march'
p32
aS'3?'
p33
aS'negative'
p34
tp35
.((lp0
S'same'
p1
aS'here'
p2
aS':-('
p3
aS'negative'
p4
tp5
.((lp0
S'approximation'
p1
aS'&'
p2
aS'fitting'
p3
aS'also.....'
p4
aS'same'
p5
aS'here'
p6
aS':-('
p7
aS'negative'
p8
tp9
.((lp0
S'same'
p1
aS'here'
p2
aS':-('
p3
aS'negative'
p4
tp5
.((lp0
S'same'
p1
aS'here!!'
p2
aS':('
p3
aS'negative'
p4
tp5
.((lp0
S'me'
p1
aS'too'
p2
aS':('
p3
aS'too'
p4
aS'bad'
p5
aS'that'
p6
aS'this'
p7
aS'is'
p8
aS'for'
p9
aS'2'
p10
aS'due'
p11
aS'dates....'
p12
aS'negative'
p13
tp14
.((lp0
S'my'
p1
aS'progress'
p2
aS'dropped'
p3
aS'5'
p4
aS'percent'
p5
aS'as'
p6
aS'well.'
p7
aS'and'
p8
aS'i'
p9
aS'cannot'
p10
aS'submit'
p11
aS'the'
p12
aS'home'
p13
aS'work'
p14
aS'on'
p15
aS'statistical'
p16
aS'estimation'
p17
aS'now:('
p18
aS'negative'
p19
tp20
.((lp0
S'i'
p1
aS'could'
p2
aS'not'
p3
aS'see'
p4
aS'the'
p5
aS'hw'
p6
aS'deadlines'
p7
aS'in'
p8
aS'the'
p9
aS'courseware'
p10
aS'section.'
p11
aS'i'
p12
aS'was'
p13
aS'still'
p14
aS'doing'
p15
aS'hw5'
p16
aS'q3'
p17
aS'which'
p18
aS'was'
p19
aS'worth'
p20
aS'60'
p21
aS'points'
p22
aS'and'
p23
aS'finally,'
p24
aS'i'
p25
aS'got'
p26
aS'the'
p27
aS'answers,'
p28
aS'but'
p29
aS'i'
p30
aS'could'
p31
aS'not'
p32
aS'submit'
p33
aS'the'
p34
aS'hw.'
p35
aS'after'
p36
aS'seeing'
p37
aS'these'
p38
aS'posts,'
p39
aS'i'
p40
aS'feel'
p41
aS'hw6'
p42
aS'was'
p43
aS'also'
p44
aS'due'
p45
aS'today'
p46
aS':(.'
p47
aS'the'
p48
aS'deadlines'
p49
aS'are'
p50
aS'not'
p51
aS'mentioned'
p52
aS'in'
p53
aS'the'
p54
aS'courseware'
p55
aS'section.'
p56
aS'please'
p57
aS'help!'
p58
aS'negative'
p59
tp60
.((lp0
S"we'll"
p1
aS'see,'
p2
aS'sometimes'
p3
aS'they'
p4
aS'might'
p5
aS'take'
p6
aS'a'
p7
aS'reasonable'
p8
aS'decision,'
p9
aS'becoz'
p10
aS'we'
p11
aS'all'
p12
aS'faced'
p13
aS'the'
p14
aS'same'
p15
aS'problem'
p16
aS':-('
p17
aS'negative'
p18
tp19
.((lp0
S'i'
p1
aS'got'
p2
aS'the'
p3
aS'answer'
p4
aS'without'
p5
aS'the'
p6
aS'correlation'
p7
aS'constraint'
p8
aS'but'
p9
aS'when'
p10
aS'i'
p11
aS'include'
p12
aS'the'
p13
aS'following'
p14
aS'constraint'
p15
aS"sum(sum(p.*(r1*r2')))==(-0.25*sig1*sig2)"
p16
aS'i'
p17
aS'am'
p18
aS'ending'
p19
aS'up'
p20
aS'status'
p21
aS'failed.'
p22
aS'any'
p23
aS'help'
p24
aS'negative'
p25
tp26
.((lp0
S'no'
p1
aS'help'
p2
aS'yet'
p3
aS'so'
p4
aS'i'
p5
aS'just'
p6
aS'plod'
p7
aS'along.'
p8
aS'there'
p9
aS'must'
p10
aS'be'
p11
aS'an'
p12
aS'easy'
p13
aS'way'
p14
aS'to'
p15
aS'see'
p16
aS'this'
p17
aS'but'
p18
aS'i'
p19
aS"can't."
p20
aS'if'
p21
aS'i'
p22
aS'try'
p23
aS'to'
p24
aS'solve'
p25
aS'this'
p26
aS'for'
p27
aS'the'
p28
aS'general'
p29
aS'quadratic'
p30
aS'norm'
p31
aS'$left'
p32
aS'|'
p33
aS'x'
p34
aS'ight'
p35
aS'|_p$'
p36
aS'it'
p37
aS'looks'
p38
aS'like:'
p39
aS'$delta_{nsd}=argminleft{'
p40
aS'abla'
p41
aS'f(x)^tvmid'
p42
aS'(v^tpv)^frac{1}{2}=1'
p43
aS'ight}$'
p44
aS'so'
p45
aS'to'
p46
aS'just'
p47
aS'pound'
p48
aS'through'
p49
aS'it:'
p50
aS'minimize'
p51
aS'$'
p52
aS'abla'
p53
aS'f(x)^tv$'
p54
aS'subject'
p55
aS'to'
p56
aS'$(v^tpv)^frac{1}{2}leq1$'
p57
aS'$l(v,lambda)='
p58
aS'abla'
p59
aS'f(x)^tv+lambdaleft'
p60
aS'[(v^tpv)^frac{1}{2}-1'
p61
aS'ight'
p62
aS']$'
p63
aS'$frac{partial'
p64
aS'l}{partial'
p65
aS'v}='
p66
aS'abla'
p67
aS'f(x)+lambda'
p68
aS'(v^tpv)^{-frac{1}{2}}pv=0$'
p69
aS'$frac{partial'
p70
aS'l}{partial'
p71
aS'lambda}=(v^tpv)^frac{1}{2}-1=0$'
p72
aS'solving'
p73
aS'for'
p74
aS'$v$'
p75
aS'gives'
p76
aS'$v=p^{-1}'
p77
aS'abla'
p78
aS'f(x)('
p79
aS'abla'
p80
aS'f(x)^tp^{-1}'
p81
aS'abla'
p82
aS'f(x))^{-frac{1}{2}}$'
p83
aS'then'
p84
aS'substituting'
p85
aS'$p='
p86
aS'abla^2'
p87
aS'f(x)$'
p88
aS'$v=alpha('
p89
aS'abla^2'
p90
aS'f(x))^{-1}'
p91
aS'abla'
p92
aS'f(x)$'
p93
aS'$alpha=('
p94
aS'abla'
p95
aS'f(x)^t('
p96
aS'abla^2'
p97
aS'f(x))^{-1}'
p98
aS'abla'
p99
aS'f(x))^{-frac{1}{2}}$'
p100
aS'surely'
p101
aS'there'
p102
aS'is'
p103
aS'an'
p104
aS'easier/clearer'
p105
aS'way'
p106
aS'to'
p107
aS'do'
p108
aS'this'
p109
aS'(and'
p110
aS'i'
p111
aS'seem'
p112
aS'to'
p113
aS'have'
p114
aS'lost'
p115
aS'track'
p116
aS'of'
p117
aS'a'
p118
aS'minus'
p119
aS'sign'
p120
aS'somewhere'
p121
aS'along'
p122
aS'the'
p123
aS'way...)???'
p124
aS'negative'
p125
tp126
.((lp0
S'another'
p1
aS'piece'
p2
aS'that'
p3
aS'took'
p4
aS'some'
p5
aS'figuring'
p6
aS'for'
p7
aS'me'
p8
aS'is'
p9
aS'that'
p10
aS'the'
p11
aS'preferences'
p12
aS'array'
p13
aS'is'
p14
aS'a'
p15
aS'list'
p16
aS'of'
p17
aS'indexes'
p18
aS'which'
p19
aS'people'
p20
aS'like'
p21
aS'column'
p22
aS'1'
p23
aS'more'
p24
aS'than'
p25
aS'column'
p26
aS'2,'
p27
aS'look'
p28
aS'at'
p29
aS'the'
p30
aS'data'
p31
aS'generation'
p32
aS'code.'
p33
aS'%'
p34
aS'%coherent'
p35
aS'preferences'
p36
aS'%'
p37
aS'for'
p38
aS'i=1:numpref*.9'
p39
aS'%'
p40
aS'ranking1=map_object_to_ranking(objects(i,1));'
p41
aS'%'
p42
aS'ranking2=map_object_to_ranking(objects(i,2));'
p43
aS'%'
p44
aS'if'
p45
aS'ranking1'
p46
aS'<'
p47
aS'ranking2'
p48
aS'%'
p49
aS'preferences(i,:)=[objects(i,2)'
p50
aS'objects(i,1)];'
p51
aS'%'
p52
aS'elseif'
p53
aS'ranking1'
p54
aS'>'
p55
aS'ranking2'
p56
aS'%'
p57
aS'preferences(i,:)=[objects(i,1)'
p58
aS'objects(i,2)];'
p59
aS'%'
p60
aS'end'
p61
aS'%'
p62
aS'end'
p63
aS'negative'
p64
tp65
.((lp0
S'hi,'
p1
aS"here's"
p2
aS'my'
p3
aS'code:'
p4
aS'%%'
p5
aS'minimax'
p6
aS'rational'
p7
aS'fit'
p8
aS'to'
p9
aS'the'
p10
aS'exponential'
p11
aS'k'
p12
aS'='
p13
aS'201;'
p14
aS'ti'
p15
aS'='
p16
aS'linspace(-3,3,k);'
p17
aS'x'
p18
aS'='
p19
aS'[ti.^2;'
p20
aS'ti;'
p21
aS"ones(1,k)]';"
p22
aS'yi'
p23
aS'='
p24
aS"exp(ti).';"
p25
aS'lb'
p26
aS'='
p27
aS'-1100;'
p28
aS'ub'
p29
aS'='
p30
aS'1000;'
p31
aS'%'
p32
aS'arbitrary'
p33
aS'lower/upper'
p34
aS'bound'
p35
aS'err'
p36
aS'='
p37
aS'1e-3;'
p38
aS'%'
p39
aS'error'
p40
aS'tolerance'
p41
aS'%'
p42
aS'at'
p43
aS'most'
p44
aS'log2((u-b)/err))'
p45
aS'iterations'
p46
aS'acoeff'
p47
aS'='
p48
aS'zeros(3,1);'
p49
aS'bcoeff'
p50
aS'='
p51
aS'zeros(2,1);'
p52
aS'iter'
p53
aS'='
p54
aS'1;'
p55
aS'%'
p56
aS'using'
p57
aS'bisection'
p58
aS'for'
p59
aS'quasiconvex'
p60
aS'optimization'
p61
aS"disp('"
p62
aS"');"
p63
aS"disp('*****"
p64
aS'minimax'
p65
aS'rational'
p66
aS'fit'
p67
aS'to'
p68
aS'the'
p69
aS'exponential:'
p70
aS"*****');"
p71
aS"fprintf(1,'computing"
p72
aS"feasibility...');"
p73
aS'while'
p74
aS'ub'
p75
aS'-'
p76
aS'lb'
p77
aS'>'
p78
aS'err'
p79
aS'g'
p80
aS'='
p81
aS'(lb+ub)/2;'
p82
aS'c0'
p83
aS'='
p84
aS'[x'
p85
aS'bsxfun(@times,'
p86
aS'g+yi,-x)];'
p87
aS'c1'
p88
aS'='
p89
aS'[x'
p90
aS'bsxfun(@times,'
p91
aS'g-yi,'
p92
aS'x)];'
p93
aS"fprintf('"
p94
aS'iter'
p95
aS'='
p96
aS'%d:'
p97
aS"',iter);"
p98
aS'%'
p99
aS'feasibility'
p100
aS'problem'
p101
aS'cvx_begin'
p102
aS'quiet'
p103
aS'variables'
p104
aS'a(3)'
p105
aS'b(2)'
p106
aS'minimize('
p107
aS'0'
p108
aS')'
p109
aS'subject'
p110
aS'to'
p111
aS'c0*[a;b;1]'
p112
aS'<='
p113
aS'0'
p114
aS'c1*[a;b;1]'
p115
aS'>='
p116
aS'0'
p117
aS'x*[b;1]'
p118
aS'>='
p119
aS'eps'
p120
aS'cvx_end'
p121
aS'%'
p122
aS'if'
p123
aS'feasible'
p124
aS'if'
p125
aS"strcmpi(cvx_status,'solved')"
p126
aS'ub'
p127
aS'='
p128
aS'g;'
p129
aS'acoeff'
p130
aS'='
p131
aS'a;'
p132
aS'bcoeff'
p133
aS'='
p134
aS'b;'
p135
aS'else'
p136
aS'lb'
p137
aS'='
p138
aS'g;'
p139
aS'end'
p140
aS'iter'
p141
aS'='
p142
aS'iter'
p143
aS'+'
p144
aS'1;'
p145
aS"fprintf('"
p146
aS"[lb,ub]=[%f,%f]',lb,ub);"
p147
aS'end'
p148
aS"disp('"
p149
aS"');"
p150
aS"disp('done!');"
p151
aS"disp('"
p152
aS"');"
p153
aS"disp('optimal"
p154
aS'coefficients:'
p155
aS"')"
p156
aS"fprintf('[a2,a1,a0]"
p157
aS'='
p158
aS'[%f,%f,%f]'
p159
aS"',acoeff(1),acoeff(2),acoeff(3));"
p160
aS"fprintf('[b2,b1]"
p161
aS'='
p162
aS'[%f,%f]'
p163
aS"',bcoeff(1),bcoeff(2));"
p164
aS"fprintf('optimal"
p165
aS'objective'
p166
aS'value:'
p167
aS'%f'
p168
aS"',..."
p169
aS'max(abs('
p170
aS'(x*acoeff)./(x*[bcoeff;1])'
p171
aS'-'
p172
aS'yi'
p173
aS')));'
p174
aS'negative'
p175
tp176
.((lp0
S'i'
p1
aS'was'
p2
aS'also'
p3
aS'under'
p4
aS'the'
p5
aS'assumption'
p6
aS'that'
p7
aS'usually'
p8
aS'the'
p9
aS'deadline'
p10
aS'would'
p11
aS'be'
p12
aS'sunday'
p13
aS'midnight,'
p14
aS'missed'
p15
aS'all'
p16
aS'problems'
p17
aS'except'
p18
aS'one'
p19
aS':('
p20
aS'negative'
p21
tp22
.((lp0
S'@jmberg'
p1
aS'but'
p2
aS'on'
p3
aS'the'
p4
aS'course'
p5
aS'info'
p6
aS'it'
p7
aS'says'
p8
aS':'
p9
aS'[\x85]'
p10
aS'as'
p11
aS'always,'
p12
aS'homework'
p13
aS'is'
p14
aS'due'
p15
aS'at'
p16
aS'midnight'
p17
aS'pst'
p18
aS'on'
p19
aS'sunday'
p20
aS'nights.'
p21
aS'and'
p22
aS'the'
p23
aS'posted'
p24
aS'deadlines'
p25
aS'on'
p26
aS'the'
p27
aS'hw'
p28
aS'problems'
p29
aS'were'
p30
aS'a'
p31
aS'little'
p32
aS'bit'
p33
aS'confusing,'
p34
aS'so'
p35
aS'i'
p36
aS'interpreted'
p37
aS'this'
p38
aS'as'
p39
aS"'always"
p40
aS'saturday'
p41
aS'midnight'
p42
aS"pst'."
p43
aS'but'
p44
aS'you'
p45
aS'are'
p46
aS'right,'
p47
aS'march'
p48
aS'9'
p49
aS'00:00'
p50
aS'pst'
p51
aS'has'
p52
aS'indeed'
p53
aS'past.'
p54
aS':-('
p55
aS'negative'
p56
tp57
.((lp0
S'same'
p1
aS'here!'
p2
aS'i'
p3
aS'was'
p4
aS'ready'
p5
aS'to'
p6
aS'do'
p7
aS'the'
p8
aS'homework'
p9
aS'today'
p10
aS'and'
p11
aS'i'
p12
aS'just'
p13
aS'noticed'
p14
aS'that'
p15
aS'the'
p16
aS'deadline'
p17
aS'was'
p18
aS'yesterday,'
p19
aS'not'
p20
aS'today...'
p21
aS':('
p22
aS'negative'
p23
tp24
.((lp0
S'i'
p1
aS'just'
p2
aS'wanted'
p3
aS'to'
p4
aS'share'
p5
aS'this'
p6
aS'geometric'
p7
aS'interpretation'
p8
aS'of'
p9
aS'l1'
p10
aS'norm'
p11
aS'minimization'
p12
aS'by'
p13
aS'a'
p14
aS'scalar'
p15
aS'value'
p16
aS'(referring'
p17
aS'to'
p18
aS'hw'
p19
aS'problem'
p20
aS'on'
p21
aS'approximation'
p22
aS'and'
p23
aS'fitting).'
p24
aS'i'
p25
aS'hope'
p26
aS'it'
p27
aS'may'
p28
aS'be'
p29
aS'helpful'
p30
aS'to'
p31
aS'some'
p32
aS'of'
p33
aS'the'
p34
aS'fellow'
p35
aS'folks.'
p36
aS'here'
p37
aS'we'
p38
aS'want'
p39
aS'to'
p40
aS'minimize'
p41
aS'||**b**-**1**y||'
p42
aS'where'
p43
aS'b'
p44
aS'is'
p45
aS'a'
p46
aS'vector'
p47
aS'of'
p48
aS'n'
p49
aS'dimension,'
p50
aS'y'
p51
aS'is'
p52
aS'scalar.'
p53
aS'lets'
p54
aS'sort'
p55
aS"**b**'s"
p56
aS'elements.'
p57
aS'now'
p58
aS'we'
p59
aS'can'
p60
aS'assume'
p61
aS'that'
p62
aS'bi'
p63
aS'='
p64
aS'f(i);'
p65
aS'for'
p66
aS'i:'
p67
aS'1'
p68
aS'to'
p69
aS'n'
p70
aS'here'
p71
aS'f'
p72
aS'is'
p73
aS'a'
p74
aS'non'
p75
aS'decreasing'
p76
aS'function.'
p77
aS'lets'
p78
aS'assume'
p79
aS'all'
p80
aS'bi'
p81
aS'>='
p82
aS'0.'
p83
aS'then'
p84
aS'we'
p85
aS'can'
p86
aS'relate'
p87
aS'||b||1'
p88
aS'norm'
p89
aS'with'
p90
aS'the'
p91
aS'area'
p92
aS'under'
p93
aS'curve'
p94
aS'of'
p95
aS'function'
p96
aS'f.'
p97
aS'now'
p98
aS'if'
p99
aS'we'
p100
aS'subtract'
p101
aS'y'
p102
aS'='
p103
aS'f(k)'
p104
aS'where'
p105
aS'k'
p106
aS'>='
p107
aS'1'
p108
aS'and'
p109
aS'k'
p110
aS'<'
p111
aS'n/2,'
p112
aS'the'
p113
aS'norm'
p114
aS'||**b**-1y||'
p115
aS'would'
p116
aS'be'
p117
aS'same'
p118
aS'as'
p119
aS'the'
p120
aS'area'
p121
aS'under'
p122
aS'f'
p123
aS'and'
p124
aS'the'
p125
aS'line'
p126
aS'y'
p127
aS'='
p128
aS'f(k).'
p129
aS'please'
p130
aS'refer'
p131
aS'to'
p132
aS'the'
p133
aS'figure'
p134
aS'below.'
p135
aS'there'
p136
aS'the'
p137
aS'black'
p138
aS'curve'
p139
aS'represents'
p140
aS'the'
p141
aS'function'
p142
aS'f'
p143
aS'and'
p144
aS'horizontal'
p145
aS'lines'
p146
aS'are'
p147
aS'y'
p148
aS'='
p149
aS'f(k).'
p150
aS'the'
p151
aS'gray'
p152
aS'region'
p153
aS'represents'
p154
aS'the'
p155
aS'area'
p156
aS'under'
p157
aS'curve'
p158
aS'and'
p159
aS'the'
p160
aS'blue'
p161
aS'line.'
p162
aS'if'
p163
aS'we'
p164
aS'observe'
p165
aS'the'
p166
aS'figure'
p167
aS'the'
p168
aS'area'
p169
aS'decreases'
p170
aS'if'
p171
aS'we'
p172
aS'drag'
p173
aS'the'
p174
aS'blue'
p175
aS'line'
p176
aS'upwards'
p177
aS'(similarly'
p178
aS'the'
p179
aS'cyan'
p180
aS'line'
p181
aS'downwards).'
p182
aS'clearly'
p183
aS'both'
p184
aS'blue'
p185
aS'and'
p186
aS'cyan'
p187
aS'line'
p188
aS'has'
p189
aS'to'
p190
aS'reach'
p191
aS'mid'
p192
aS'of'
p193
aS'the'
p194
aS'[1-n]'
p195
aS'range'
p196
aS'to'
p197
aS'obtain'
p198
aS'the'
p199
aS'minimum'
p200
aS'area.'
p201
aS'which'
p202
aS'proves'
p203
aS'that'
p204
aS'the'
p205
aS'norm'
p206
aS'minimizer'
p207
aS'has'
p208
aS'to'
p209
aS'be'
p210
aS'median'
p211
aS'of'
p212
aS'**b**.'
p213
aS'this'
p214
aS'thing'
p215
aS'can'
p216
aS'also'
p217
aS'be'
p218
aS'modeled'
p219
aS'in'
p220
aS'integral'
p221
aS'form'
p222
aS'and'
p223
aS'then'
p224
aS'minimizing'
p225
aS'it'
p226
aS'will'
p227
aS'lead'
p228
aS'to'
p229
aS'the'
p230
aS'same'
p231
aS'solution.'
p232
aS'oops'
p233
aS'it'
p234
aS'took'
p235
aS'so'
p236
aS'many'
p237
aS'lines'
p238
aS'to'
p239
aS'explain..'
p240
aS':('
p241
aS'![pictorial'
p242
aS'explanation][1]'
p243
aS'[1]:'
p244
aS'https://edx-west-uploads.s3.amazonaws.com/1<phoneredac><phoneredac>2.png'
p245
aS'negative'
p246
tp247
.((lp0
S'i'
p1
aS'just'
p2
aS'spoke'
p3
aS'with'
p4
aS'prof.'
p5
aS'vandenberghe'
p6
aS'on'
p7
aS'this'
p8
aS"(i'm"
p9
aS'taking'
p10
aS'236b'
p11
aS'here'
p12
aS'at'
p13
aS'ucla).'
p14
aS'the'
p15
aS'solution'
p16
aS'is'
p17
aS'the'
p18
aS'lp'
p19
aS'formulation'
p20
aS'that'
p21
aS'goes'
p22
aS'as'
p23
aS'follows,'
p24
aS'but'
p25
aS'on'
p26
aS'account'
p27
aS'of'
p28
aS'verifying'
p29
aS'just'
p30
aS'one'
p31
aS'thing.'
p32
aS'when'
p33
aS'you'
p34
aS'make'
p35
aS'the'
p36
aS'change'
p37
aS'of'
p38
aS'variables'
p39
aS'$x_c^tx_c-r^2=t$,'
p40
aS'you'
p41
aS'get'
p42
aS'an'
p43
aS'lp'
p44
aS'(which'
p45
aS'the'
p46
aS'pdfs'
p47
aS'in'
p48
aS'this'
p49
aS'thread'
p50
aS'explain)'
p51
aS'to'
p52
aS'solve'
p53
aS'which'
p54
aS'is'
p55
aS'$sum_{i=1}^m'
p56
aS'(u_i^t'
p57
aS'cdot'
p58
aS'u_i'
p59
aS'-'
p60
aS'2u_i^t'
p61
aS'cdot'
p62
aS'x_c'
p63
aS'+'
p64
aS't)^2=|ax-b|_2^2$'
p65
aS'which'
p66
aS'is'
p67
aS'a'
p68
aS'least'
p69
aS'squares'
p70
aS'for'
p71
aS'appropriate'
p72
aS'$a$'
p73
aS'and'
p74
aS'$x=[x_c;t]$'
p75
aS'(in'
p76
aS'matlab'
p77
aS'convention).'
p78
aS'now'
p79
aS'all'
p80
aS'you'
p81
aS'have'
p82
aS'to'
p83
aS'do'
p84
aS'is'
p85
aS'show'
p86
aS'that'
p87
aS'at'
p88
aS'the'
p89
aS'optimum'
p90
aS'$x_c,t$'
p91
aS'you'
p92
aS'can'
p93
aS'recover'
p94
aS'$r=sqrt{x_c^tcdot'
p95
aS'x_c-t}$'
p96
aS'which'
p97
aS'means'
p98
aS'you'
p99
aS'have'
p100
aS'to'
p101
aS'show'
p102
aS'that'
p103
aS'$x_c^tx_c-t'
p104
aS'ge'
p105
aS'0$.'
p106
aS'this'
p107
aS'is'
p108
aS'where'
p109
aS'the'
p110
aS'apparent'
p111
aS'power'
p112
aS'of'
p113
aS'formulating'
p114
aS'a'
p115
aS'nonlinear'
p116
aS'variable'
p117
aS'as'
p118
aS'a'
p119
aS'linear'
p120
aS'has'
p121
aS'really'
p122
aS'helped'
p123
aS'us.'
p124
aS'to'
p125
aS'show'
p126
aS'this,'
p127
aS'take'
p128
aS'the'
p129
aS'kkt'
p130
aS'condition'
p131
aS'for'
p132
aS'the'
p133
aS'least'
p134
aS'squares'
p135
aS'problem'
p136
aS'and'
p137
aS'try'
p138
aS'to'
p139
aS'verify'
p140
aS'that'
p141
aS'$a^tax=a^tb'
p142
aS'implies'
p143
aS'x_c^tx_c-t'
p144
aS'ge'
p145
aS'0.$'
p146
aS'and'
p147
aS"it's"
p148
aS'not'
p149
aS'hard'
p150
aS'to'
p151
aS'verify'
p152
aS'this.'
p153
aS'this'
p154
aS'also'
p155
aS'suggests'
p156
aS'that'
p157
aS'there'
p158
aS'is'
p159
aS'a'
p160
aS'solution'
p161
aS'to'
p162
aS'the'
p163
aS'original'
p164
aS'problem'
p165
aS'$iff$'
p166
aS'the'
p167
aS'required'
p168
aS'condition'
p169
aS'is'
p170
aS'satisfied.'
p171
aS'prof.'
p172
aS'vandenberghe'
p173
aS'also'
p174
aS'suggested'
p175
aS'that'
p176
aS'a'
p177
aS'lot'
p178
aS'of'
p179
aS'other'
p180
aS'ill-conditioned'
p181
aS'non-linear'
p182
aS'problems'
p183
aS'can'
p184
aS'be'
p185
aS'posed'
p186
aS'as'
p187
aS'simpler'
p188
aS'ones'
p189
aS'provided'
p190
aS'you'
p191
aS'can'
p192
aS'verify'
p193
aS'that'
p194
aS'at'
p195
aS'the'
p196
aS'optimum'
p197
aS'you'
p198
aS'can'
p199
aS'recover'
p200
aS'the'
p201
aS'variables.'
p202
aS'negative'
p203
tp204
.((lp0
S'i'
p1
aS'could'
p2
aS'use'
p3
aS'some'
p4
aS'pointers'
p5
aS'on'
p6
aS'this'
p7
aS'one,'
p8
aS'i'
p9
aS'thought'
p10
aS'i'
p11
aS'figured'
p12
aS'it'
p13
aS'out,'
p14
aS'but'
p15
aS'i'
p16
aS'got'
p17
aS'all'
p18
aS'answers'
p19
aS'wrong'
p20
aS'on'
p21
aS'my'
p22
aS'first'
p23
aS'go,'
p24
aS'so'
p25
aS'i'
p26
aS'guess'
p27
aS'not'
p28
aS':(.'
p29
aS'what'
p30
aS'i'
p31
aS'was'
p32
aS'thinking'
p33
aS'was'
p34
aS'that'
p35
aS'there'
p36
aS'are'
p37
aS'2'
p38
aS'main'
p39
aS'steps,'
p40
aS'1.'
p41
aS'compute'
p42
aS'$c^t'
p43
aS'c$'
p44
aS'where'
p45
aS'c'
p46
aS'is'
p47
aS'just'
p48
aS'a'
p49
aS'blocked'
p50
aS'over'
p51
aS'$'
p52
aS'ho'
p53
aS'i$,'
p54
aS'and'
p55
aS'is'
p56
aS'a'
p57
aS'(n+m)'
p58
aS'by'
p59
aS'n'
p60
aS'matrix.'
p61
aS'this'
p62
aS'should'
p63
aS'be'
p64
aS'order'
p65
aS'$2'
p66
aS'n(m+n)^2$'
p67
aS'from'
p68
aS'what'
p69
aS'i'
p70
aS'understand.'
p71
aS'2.'
p72
aS'factor'
p73
aS'$c^t'
p74
aS'c$'
p75
aS'with'
p76
aS'an'
p77
aS'ldl.'
p78
aS'this'
p79
aS'should'
p80
aS'have'
p81
aS'a'
p82
aS'similar'
p83
aS'property'
p84
aS'of'
p85
aS'not'
p86
aS'having'
p87
aS'to'
p88
aS'recompute'
p89
aS'the'
p90
aS'factorization'
p91
aS'if'
p92
aS'rho'
p93
aS'changed,'
p94
aS'only'
p95
aS'd'
p96
aS'would'
p97
aS'be'
p98
aS'different.'
p99
aS'this'
p100
aS'is'
p101
aS'$1/3'
p102
aS'(n+m)^3$'
p103
aS'ops.'
p104
aS'other'
p105
aS'solves'
p106
aS'should'
p107
aS'be'
p108
aS'$n^2$'
p109
aS'therefore'
p110
aS'i'
p111
aS'answered'
p112
aS'(exactly'
p113
aS'typed'
p114
aS'as'
p115
aS'so):'
p116
aS'm^2*n'
p117
aS'for'
p118
aS'the'
p119
aS'first'
p120
aS'part.'
p121
aS'($m>n$)'
p122
aS'n^3'
p123
aS'for'
p124
aS'the'
p125
aS'second,'
p126
aS'($n<m$)'
p127
aS'and'
p128
aS'n^2'
p129
aS'for'
p130
aS'the'
p131
aS'last.'
p132
aS'what'
p133
aS'am'
p134
aS'i'
p135
aS'doing'
p136
aS'wrong?'
p137
aS'negative'
p138
tp139
.((lp0
S'same'
p1
aS'here.'
p2
aS'i'
p3
aS'got'
p4
aS'revenue'
p5
aS'correct,'
p6
aS'penalty'
p7
aS'and'
p8
aS'profit'
p9
aS'got'
p10
aS'wrong.'
p11
aS':('
p12
aS'----------'
p13
aS'anyone'
p14
aS'got'
p15
aS'this'
p16
aS'correct'
p17
aS'put'
p18
aS'up'
p19
aS'a'
p20
aS'post'
p21
aS'will'
p22
aS'you'
p23
aS'negative'
p24
tp25
.((lp0
S'i'
p1
aS'still'
p2
aS'could'
p3
aS'not'
p4
aS'understand'
p5
aS'why'
p6
aS'all'
p7
aS'the'
p8
aS'vmax'
p9
aS'values'
p10
aS'should'
p11
aS'be'
p12
aS'capped'
p13
aS'to'
p14
aS'the'
p15
aS'same'
p16
aS'value.'
p17
aS'dude,'
p18
aS'each'
p19
aS'entry'
p20
aS'of'
p21
aS'vmax'
p22
aS'represents'
p23
aS'the'
p24
aS'maximum'
p25
aS'rate'
p26
aS'for'
p27
aS'a'
p28
aS'specific'
p29
aS'reaction,'
p30
aS'which'
p31
aS'should'
p32
aS'be'
p33
aS'different'
p34
aS'from'
p35
aS'others.'
p36
aS'capping'
p37
aS'them'
p38
aS'to'
p39
aS'justify'
p40
aS'the'
p41
aS'correctness'
p42
aS'of'
p43
aS'the'
p44
aS'answer'
p45
aS"doesn't"
p46
aS'make'
p47
aS'me'
p48
aS'feel'
p49
aS'better.'
p50
aS'i'
p51
aS'would'
p52
aS'just'
p53
aS'wait'
p54
aS':('
p55
aS'negative'
p56
tp57
.((lp0
S'my'
p1
aS'answer'
p2
aS'was'
p3
aS'accepted'
p4
aS'in'
p5
aS'the'
p6
aS'second'
p7
aS'attempt'
p8
aS'but'
p9
aS'i'
p10
aS'still'
p11
aS"don't"
p12
aS'really'
p13
aS'understand'
p14
aS'the'
p15
aS'model'
p16
aS'and'
p17
aS'stumbled'
p18
aS'over'
p19
aS'the'
p20
aS'right'
p21
aS'solution'
p22
aS'by'
p23
aS'dumb'
p24
aS'luck.'
p25
aS':-('
p26
aS'it'
p27
aS'says'
p28
aS'that'
p29
aS':'
p30
aS"'\x85"
p31
aS'the'
p32
aS'last'
p33
aS'reaction,'
p34
aS'r9,'
p35
aS'corresponds'
p36
aS'to'
p37
aS'the'
p38
aS'biomass'
p39
aS'creation,'
p40
aS'or'
p41
aS'cell'
p42
aS"growth\x85'"
p43
aS'so'
p44
aS'i'
p45
aS'thought,'
p46
aS'it'
p47
aS"wouldn't"
p48
aS'make'
p49
aS'so'
p50
aS'much'
p51
aS'sense'
p52
aS'to'
p53
aS'cap'
p54
aS'the'
p55
aS'cell'
p56
aS'growth'
p57
aS'rate'
p58
aS'to'
p59
aS'find'
p60
aS'the'
p61
aS'reaction'
p62
aS'rate'
p63
aS'limit'
p64
aS'the'
p65
aS'cell'
p66
aS'growth'
p67
aS'rate'
p68
aS'is'
p69
aS'most'
p70
aS'sensitive'
p71
aS'to.'
p72
aS'my'
p73
aS'first'
p74
aS'approach'
p75
aS'was'
p76
aS'to'
p77
aS'cap'
p78
aS'the'
p79
aS'upper'
p80
aS'bounds'
p81
aS'of'
p82
aS'vmax'
p83
aS'without'
p84
aS'vmax(9),'
p85
aS'the'
p86
aS'result'
p87
aS'i'
p88
aS'get'
p89
aS'seemed'
p90
aS'reasonable'
p91
aS'to'
p92
aS'me,'
p93
aS'but'
p94
aS'of'
p95
aS'course'
p96
aS'it'
p97
aS"wasn't"
p98
aS'accepted.'
p99
aS'when'
p100
aS'i'
p101
aS'included'
p102
aS'the'
p103
aS'last'
p104
aS'reaction'
p105
aS'rate'
p106
aS'limit,'
p107
aS'of'
p108
aS'course'
p109
aS'the'
p110
aS'maximum'
p111
aS'cell'
p112
aS'growth'
p113
aS'rate'
p114
aS'reacts'
p115
aS'sensitive'
p116
aS'to'
p117
aS'that.'
p118
aS'negative'
p119
tp120
.((lp0
S'it'
p1
aS'sure'
p2
aS'looks'
p3
aS'convex.'
p4
aS'here'
p5
aS'is'
p6
aS'matlab'
p7
aS'code'
p8
aS'to'
p9
aS'plot'
p10
aS'it'
p11
aS'x=[-4:.01:4];'
p12
aS'log_norm_cdf=log('
p13
aS'(erf(x/sqrt(2))+1)/2'
p14
aS');'
p15
aS'plot(log_norm_cdf)'
p16
aS'i'
p17
aS'think'
p18
aS'it'
p19
aS'exists'
p20
aS'as'
p21
aS'a'
p22
aS'cvx'
p23
aS'primitive'
p24
aS'because'
p25
aS'it'
p26
aS'is'
p27
aS'convex'
p28
aS'and'
p29
aS'cannot'
p30
aS'be'
p31
aS'derived'
p32
aS'from'
p33
aS'other'
p34
aS'dcp'
p35
aS'rules.'
p36
aS'negative'
p37
tp38
.((lp0
S'just'
p1
aS'some'
p2
aS'comments'
p3
aS'on'
p4
aS'"shortest'
p5
aS'path'
p6
aS'problem'
p7
aS'is'
p8
aS'lp."'
p9
aS'i'
p10
aS'guess'
p11
aS'ppl'
p12
aS'form'
p13
aS'$ax=b$'
p14
aS'constrain,'
p15
aS'where'
p16
aS'$b$'
p17
aS'is'
p18
aS'[-1;'
p19
aS'0;'
p20
aS'0'
p21
aS'....0;'
p22
aS'1]'
p23
aS'to'
p24
aS'find'
p25
aS'valid'
p26
aS'path.'
p27
aS'(i'
p28
aS'found'
p29
aS'this'
p30
aS'from'
p31
aS'some'
p32
aS'reference).'
p33
aS'in'
p34
aS'this'
p35
aS'case,'
p36
aS'it'
p37
aS'will'
p38
aS'be'
p39
aS'a'
p40
aS'constrain'
p41
aS'on'
p42
aS'possible'
p43
aS'shortest'
p44
aS'paths.'
p45
aS'take'
p46
aS'a'
p47
aS'simple'
p48
aS'3'
p49
aS'nodes'
p50
aS'example.'
p51
aS'one'
p52
aS'path'
p53
aS'is'
p54
aS'1->3'
p55
aS'and'
p56
aS'the'
p57
aS'other'
p58
aS'path'
p59
aS'is'
p60
aS'1->2->3.'
p61
aS'$a$'
p62
aS'will'
p63
aS'be'
p64
aS'[-1'
p65
aS'0'
p66
aS'-1;'
p67
aS'0'
p68
aS'-1'
p69
aS'1;'
p70
aS'1'
p71
aS'1'
p72
aS'0]'
p73
aS'and'
p74
aS'b'
p75
aS'will'
p76
aS'be'
p77
aS'[-1'
p78
aS'0'
p79
aS'1].'
p80
aS'any'
p81
aS'$x=[x1;'
p82
aS'x2;'
p83
aS'x3]$'
p84
aS'where'
p85
aS'$x1+x2=1$'
p86
aS'will'
p87
aS'satisfy'
p88
aS'the'
p89
aS'constrain,'
p90
aS'which'
p91
aS'means'
p92
aS'e.g'
p93
aS'['
p94
aS'1'
p95
aS'0'
p96
aS'0]'
p97
aS'1->3'
p98
aS'path'
p99
aS'is'
p100
aS'valid.'
p101
aS'[0'
p102
aS'1'
p103
aS'1]'
p104
aS'1->2->3'
p105
aS'is'
p106
aS'valid,'
p107
aS'and'
p108
aS'[0.5'
p109
aS'0.5'
p110
aS'0.5]'
p111
aS'is'
p112
aS'valid'
p113
aS'as'
p114
aS'well.'
p115
aS'in'
p116
aS'the'
p117
aS'last'
p118
aS'case,'
p119
aS'there'
p120
aS'are'
p121
aS'two'
p122
aS'paths.'
p123
aS'please'
p124
aS'correct'
p125
aS'me'
p126
aS'if'
p127
aS'i'
p128
aS'understand'
p129
aS'things'
p130
aS'wrong.'
p131
aS'thanks.'
p132
aS'negative'
p133
tp134
.((lp0
S'here'
p1
aS'is'
p2
aS'my'
p3
aS'approach:'
p4
aS"rand('state',0);"
p5
aS'n=10;m=20;'
p6
aS'edges=[[1'
p7
aS'1'
p8
aS'1'
p9
aS'2'
p10
aS'2'
p11
aS'2'
p12
aS'3'
p13
aS'3'
p14
aS'4'
p15
aS'4'
p16
aS'5'
p17
aS'5'
p18
aS'6'
p19
aS'6'
p20
aS'7'
p21
aS'7'
p22
aS'8'
p23
aS'7'
p24
aS'8'
p25
aS"9]'..."
p26
aS'[2'
p27
aS'3'
p28
aS'4'
p29
aS'6'
p30
aS'3'
p31
aS'4'
p32
aS'5'
p33
aS'6'
p34
aS'6'
p35
aS'7'
p36
aS'8'
p37
aS'7'
p38
aS'7'
p39
aS'8'
p40
aS'8'
p41
aS'9'
p42
aS'9'
p43
aS'10'
p44
aS'10'
p45
aS"10]'];"
p46
aS'a=zeros(n,m);'
p47
aS'for'
p48
aS'j=1:size(edges,1)'
p49
aS'a(edges(j,1),j)=-1;a(edges(j,2),j)=1;'
p50
aS'end'
p51
aS'a=2*rand(m,1);'
p52
aS'x_max'
p53
aS'='
p54
aS'1+rand(m,1);b=m/2;'
p55
aS'%'
p56
aS'code'
p57
aS'to'
p58
aS'plot'
p59
aS'the'
p60
aS'graph'
p61
aS'(if'
p62
aS'you'
p63
aS'have'
p64
aS'biograph)'
p65
aS'%g=sparse(edges(:,1),edges(:,2),1,n,n);'
p66
aS'%view(biograph(g));'
p67
aS'c'
p68
aS'='
p69
aS'zeros(n,1);'
p70
aS'c(end)'
p71
aS'='
p72
aS'1;'
p73
aS'cvx_begin'
p74
aS'variables'
p75
aS'x(m)'
p76
aS'logp(n)'
p77
aS'minimize'
p78
aS"(c'*logp)"
p79
aS'%'
p80
aS'='
p81
aS'logp(n)'
p82
aS'subject'
p83
aS'to'
p84
aS"ones(m,1)'*x"
p85
aS'<='
p86
aS'b'
p87
aS'x'
p88
aS'<='
p89
aS'x_max'
p90
aS'x'
p91
aS'>='
p92
aS'0'
p93
aS'logp(1)'
p94
aS'=='
p95
aS'0'
p96
aS'for'
p97
aS'nodeid'
p98
aS'='
p99
aS'2:n'
p100
aS'edgelist'
p101
aS'='
p102
aS'find(edges(:,2)'
p103
aS'=='
p104
aS'nodeid);'
p105
aS'sourcenodelist'
p106
aS'='
p107
aS'edges(edgelist,1);'
p108
aS'%'
p109
aS'max'
p110
aS'of'
p111
aS'p_prev'
p112
aS'='
p113
aS'p_current'
p114
aS'implies'
p115
aS'each'
p116
aS'of'
p117
aS'p_prev'
p118
aS'='
p119
aS'%'
p120
aS'p_current'
p121
aS'logp(sourcenodelist)-a(edgelist).*x(edgelist)'
p122
aS'=='
p123
aS'logp(nodeid);'
p124
aS'end'
p125
aS'cvx_end'
p126
aS"disp(['p^{max,*}"
p127
aS'='
p128
aS"',"
p129
aS'num2str(exp(logp(n)))]);'
p130
aS'%'
p131
aS'below'
p132
aS'is'
p133
aS'the'
p134
aS'equal'
p135
aS'power'
p136
aS'allocation'
p137
aS'problem'
p138
aS'%'
p139
aS'no'
p140
aS'need'
p141
aS'for'
p142
aS'any'
p143
aS'optimization'
p144
aS'logp_eqpower'
p145
aS'='
p146
aS'zeros(n,1);'
p147
aS'logp_eqpower(1)'
p148
aS'='
p149
aS'0;'
p150
aS'x_eq'
p151
aS'='
p152
aS'(b/m)*ones(m,1);'
p153
aS'for'
p154
aS'nodeid'
p155
aS'='
p156
aS'2:n'
p157
aS'edgelist'
p158
aS'='
p159
aS'find(edges(:,2)'
p160
aS'=='
p161
aS'nodeid);'
p162
aS'sourcenodelist'
p163
aS'='
p164
aS'edges(edgelist,1);'
p165
aS'logp_eqpower(nodeid)'
p166
aS'='
p167
aS'max(logp_eqpower(sourcenodelist)-a(edgelist).*x_eq(edgelist));'
p168
aS'end'
p169
aS"disp(['p^{max}"
p170
aS'with'
p171
aS'equal'
p172
aS'allocation'
p173
aS'='
p174
aS"',"
p175
aS'num2str(exp(logp_eqpower(n)))]);'
p176
aS'negative'
p177
tp178
.((lp0
S'@rannavajjala:'
p1
aS'thank'
p2
aS'you'
p3
aS'very'
p4
aS'much'
p5
aS'for'
p6
aS'posting'
p7
aS'your'
p8
aS'code.'
p9
aS'i'
p10
aS'still'
p11
aS'fail'
p12
aS'to'
p13
aS'understand'
p14
aS'how:'
p15
aS'$'
p16
aS'ext{log}p_j'
p17
aS'='
p18
aS'underset{i}{'
p19
aS'ext{max}}('
p20
aS'ext{log}'
p21
aS'p_i'
p22
aS'-'
p23
aS'a_k'
p24
aS'x_k)implies'
p25
aS'ext{log}p_j'
p26
aS'='
p27
aS'ext{log}'
p28
aS'p_i'
p29
aS'-'
p30
aS'a_k'
p31
aS'x_k$'
p32
aS'$forall'
p33
aS'i$,'
p34
aS'where'
p35
aS'$i'
p36
aS'<'
p37
aS'j$'
p38
aS'and'
p39
aS'$k$'
p40
aS'labels'
p41
aS'the'
p42
aS'edge'
p43
aS'$(i,j)'
p44
aS'in'
p45
aS'ext{edges}$.'
p46
aS'as'
p47
aS'an'
p48
aS'example,'
p49
aS'if'
p50
aS'$j=3$,'
p51
aS'then'
p52
aS'your'
p53
aS'cvx'
p54
aS'code'
p55
aS'says:'
p56
aS'$'
p57
aS'left('
p58
aS'\x08egin{array}{c}'
p59
aS'logp_1'
p60
aS'\\'
p61
aS'logp_2'
p62
aS'end{array}'
p63
aS'ight)'
p64
aS'-'
p65
aS'left('
p66
aS'\x08egin{array}{c}'
p67
aS'a(2)*x(2)'
p68
aS'\\'
p69
aS'a(5)*x(5)'
p70
aS'end{array}'
p71
aS'ight)'
p72
aS'=='
p73
aS'logp_3$.'
p74
aS'since'
p75
aS'edge'
p76
aS'2'
p77
aS'goes'
p78
aS'from'
p79
aS'$1'
p80
aS'o'
p81
aS'3$'
p82
aS'and'
p83
aS'edge'
p84
aS'$5$'
p85
aS'goes'
p86
aS'from'
p87
aS'$2'
p88
aS'o'
p89
aS'3$.'
p90
aS'this'
p91
aS'seems'
p92
aS'to'
p93
aS'be'
p94
aS'missing'
p95
aS'the'
p96
aS'$max$'
p97
aS'operator'
p98
aS'which'
p99
aS"isn't"
p100
aS'cvx'
p101
aS'representable'
p102
aS'for'
p103
aS'equality'
p104
aS'constraints'
p105
aS'(to'
p106
aS'my'
p107
aS'knowledge).'
p108
aS'indeed,'
p109
aS'in'
p110
aS'solving'
p111
aS'the'
p112
aS"'equal"
p113
aS'allocation'
p114
aS"problem'"
p115
aS'you'
p116
aS'used'
p117
aS'the'
p118
aS'$max$'
p119
aS'(as'
p120
aS'we'
p121
aS'should),'
p122
aS'but'
p123
aS"that's"
p124
aS'no'
p125
aS'longer'
p126
aS'a'
p127
aS'problem'
p128
aS'since'
p129
aS"it's"
p130
aS'not'
p131
aS'inside'
p132
aS'cvx'
p133
aS'(and'
p134
aS"doesn't"
p135
aS'need'
p136
aS'to'
p137
aS'be,'
p138
aS'as'
p139
aS'you'
p140
aS'point'
p141
aS'out).'
p142
aS'the'
p143
aS'other'
p144
aS'big'
p145
aS'picture'
p146
aS'concern'
p147
aS"i've"
p148
aS'is'
p149
aS'that'
p150
aS'method'
p151
aS'*does*'
p152
aS'enumerate'
p153
aS'all'
p154
aS'valid'
p155
aS'paths.'
p156
aS'i'
p157
aS'understand'
p158
aS'it'
p159
aS'as'
p160
aS'a'
p161
aS'greedy'
p162
aS'algorithm,'
p163
aS'where'
p164
aS'one'
p165
aS'finds'
p166
aS'$p_j$'
p167
aS'by'
p168
aS'finding'
p169
aS'the'
p170
aS'maximum'
p171
aS'joint'
p172
aS'probability'
p173
aS'$p_k*p_i$,'
p174
aS'over'
p175
aS'all'
p176
aS'edges'
p177
aS'$k$'
p178
aS'incoming'
p179
aS'to'
p180
aS'node'
p181
aS'$j$'
p182
aS'from'
p183
aS'source'
p184
aS'nodes'
p185
aS'$i$.'
p186
aS'this'
p187
aS'technique'
p188
aS'necessarily'
p189
aS'visits'
p190
aS'*each*'
p191
aS'node'
p192
aS'sequentially'
p193
aS'and'
p194
aS'must'
p195
aS'consider'
p196
aS'*all*'
p197
aS'edges'
p198
aS'leading'
p199
aS'to'
p200
aS'the'
p201
aS'current'
p202
aS'node,'
p203
aS'thereby'
p204
aS'enumerating'
p205
aS'all'
p206
aS'valid'
p207
aS'paths.'
p208
aS'i'
p209
aS'know'
p210
aS'i'
p211
aS'must'
p212
aS'be'
p213
aS'trying'
p214
aS'your'
p215
aS'patience,'
p216
aS'but'
p217
aS'this'
p218
aS'hw'
p219
aS'problem'
p220
aS'really'
p221
aS'has'
p222
aS'me'
p223
aS'flummoxed!'
p224
aS'none'
p225
aS'of'
p226
aS'the'
p227
aS'approaches'
p228
aS"i've"
p229
aS'seen,'
p230
aS'i'
p231
aS'can'
p232
aS'fully'
p233
aS'understand'
p234
aS'(including'
p235
aS'the'
p236
aS'one'
p237
aS'chengzhang'
p238
aS'and'
p239
aS'bnmg'
p240
aS'have'
p241
aS'discussed)'
p242
aS':(!'
p243
aS'negative'
p244
tp245
.